
FLASH.elf:     file format elf32-littlearm

Sections:
Idx Name          Size      VMA       LMA       File off  Algn
  0 .isr_vector   0000010c  08000000  08000000  00001000  2**0
                  CONTENTS, ALLOC, LOAD, READONLY, DATA
  1 .text         000011a0  0800010c  0800010c  0000110c  2**2
                  CONTENTS, ALLOC, LOAD, READONLY, CODE
  2 .rodata       00000024  080012ac  080012ac  000022ac  2**2
                  CONTENTS, ALLOC, LOAD, READONLY, DATA
  3 .ARM.extab    00000000  080012d0  080012d0  0000300c  2**0
                  CONTENTS
  4 .ARM          00000000  080012d0  080012d0  0000300c  2**0
                  CONTENTS
  5 .preinit_array 00000000  080012d0  080012d0  0000300c  2**0
                  CONTENTS, ALLOC, LOAD, DATA
  6 .init_array   00000004  080012d0  080012d0  000022d0  2**2
                  CONTENTS, ALLOC, LOAD, READONLY, DATA
  7 .fini_array   00000004  080012d4  080012d4  000022d4  2**2
                  CONTENTS, ALLOC, LOAD, READONLY, DATA
  8 .data         0000000c  20000000  080012d8  00003000  2**2
                  CONTENTS, ALLOC, LOAD, DATA
  9 .bss          00000048  20000010  080012e4  00003010  2**3
                  ALLOC
 10 ._user_heap_stack 00000600  20000058  080012e4  00003058  2**0
                  ALLOC
 11 .ARM.attributes 00000029  00000000  00000000  0000300c  2**0
                  CONTENTS, READONLY
 12 .debug_info   0000340e  00000000  00000000  00003035  2**0
                  CONTENTS, READONLY, DEBUGGING, OCTETS
 13 .debug_abbrev 000012bc  00000000  00000000  00006443  2**0
                  CONTENTS, READONLY, DEBUGGING, OCTETS
 14 .debug_aranges 000004f8  00000000  00000000  00007700  2**3
                  CONTENTS, READONLY, DEBUGGING, OCTETS
 15 .debug_rnglists 00000395  00000000  00000000  00007bf8  2**0
                  CONTENTS, READONLY, DEBUGGING, OCTETS
 16 .debug_macro  000165c8  00000000  00000000  00007f8d  2**0
                  CONTENTS, READONLY, DEBUGGING, OCTETS
 17 .debug_line   00005fbd  00000000  00000000  0001e555  2**0
                  CONTENTS, READONLY, DEBUGGING, OCTETS
 18 .debug_str    0007f170  00000000  00000000  00024512  2**0
                  CONTENTS, READONLY, DEBUGGING, OCTETS
 19 .comment      00000043  00000000  00000000  000a3682  2**0
                  CONTENTS, READONLY
 20 .debug_frame  000011c0  00000000  00000000  000a36c8  2**2
                  CONTENTS, READONLY, DEBUGGING, OCTETS
 21 .debug_line_str 00000061  00000000  00000000  000a4888  2**0
                  CONTENTS, READONLY, DEBUGGING, OCTETS

Disassembly of section .text:

0800010c <__do_global_dtors_aux>:
 800010c:	b510      	push	{r4, lr}
 800010e:	4c05      	ldr	r4, [pc, #20]	@ (8000124 <__do_global_dtors_aux+0x18>)
 8000110:	7823      	ldrb	r3, [r4, #0]
 8000112:	b933      	cbnz	r3, 8000122 <__do_global_dtors_aux+0x16>
 8000114:	4b04      	ldr	r3, [pc, #16]	@ (8000128 <__do_global_dtors_aux+0x1c>)
 8000116:	b113      	cbz	r3, 800011e <__do_global_dtors_aux+0x12>
 8000118:	4804      	ldr	r0, [pc, #16]	@ (800012c <__do_global_dtors_aux+0x20>)
 800011a:	f3af 8000 	nop.w
 800011e:	2301      	movs	r3, #1
 8000120:	7023      	strb	r3, [r4, #0]
 8000122:	bd10      	pop	{r4, pc}
 8000124:	20000010 	.word	0x20000010
 8000128:	00000000 	.word	0x00000000
 800012c:	08001294 	.word	0x08001294

08000130 <frame_dummy>:
 8000130:	b508      	push	{r3, lr}
 8000132:	4b03      	ldr	r3, [pc, #12]	@ (8000140 <frame_dummy+0x10>)
 8000134:	b11b      	cbz	r3, 800013e <frame_dummy+0xe>
 8000136:	4903      	ldr	r1, [pc, #12]	@ (8000144 <frame_dummy+0x14>)
 8000138:	4803      	ldr	r0, [pc, #12]	@ (8000148 <frame_dummy+0x18>)
 800013a:	f3af 8000 	nop.w
 800013e:	bd08      	pop	{r3, pc}
 8000140:	00000000 	.word	0x00000000
 8000144:	20000014 	.word	0x20000014
 8000148:	08001294 	.word	0x08001294

0800014c <Flash_erase>:
 */
#include"FLASH.h"
#include"stm32f1xx.h"

void Flash_erase (uint32_t address)
{
 800014c:	b580      	push	{r7, lr}
 800014e:	b088      	sub	sp, #32
 8000150:	af00      	add	r7, sp, #0
 8000152:	6078      	str	r0, [r7, #4]
	HAL_FLASH_Unlock();
 8000154:	f000 fb04 	bl	8000760 <HAL_FLASH_Unlock>
	FLASH_EraseInitTypeDef EraseInitStruct;
	EraseInitStruct.Banks = 1;
 8000158:	2301      	movs	r3, #1
 800015a:	617b      	str	r3, [r7, #20]
	EraseInitStruct.NbPages = 1;
 800015c:	2301      	movs	r3, #1
 800015e:	61fb      	str	r3, [r7, #28]
	EraseInitStruct.PageAddress = address;
 8000160:	687b      	ldr	r3, [r7, #4]
 8000162:	61bb      	str	r3, [r7, #24]
	EraseInitStruct.TypeErase = FLASH_TYPEERASE_PAGES;
 8000164:	2300      	movs	r3, #0
 8000166:	613b      	str	r3, [r7, #16]
	uint32_t pageer;
	HAL_FLASHEx_Erase (&EraseInitStruct, &pageer);
 8000168:	f107 020c 	add.w	r2, r7, #12
 800016c:	f107 0310 	add.w	r3, r7, #16
 8000170:	4611      	mov	r1, r2
 8000172:	4618      	mov	r0, r3
 8000174:	f000 fbdc 	bl	8000930 <HAL_FLASHEx_Erase>
	HAL_FLASH_Lock();
 8000178:	f000 fb18 	bl	80007ac <HAL_FLASH_Lock>
}
 800017c:	bf00      	nop
 800017e:	3720      	adds	r7, #32
 8000180:	46bd      	mov	sp, r7
 8000182:	bd80      	pop	{r7, pc}

08000184 <Flash_write_int>:

void Flash_write_int (uint32_t address, int value)
{
 8000184:	b5b0      	push	{r4, r5, r7, lr}
 8000186:	b082      	sub	sp, #8
 8000188:	af00      	add	r7, sp, #0
 800018a:	6078      	str	r0, [r7, #4]
 800018c:	6039      	str	r1, [r7, #0]
	HAL_FLASH_Unlock();
 800018e:	f000 fae7 	bl	8000760 <HAL_FLASH_Unlock>
	HAL_FLASH_Program (FLASH_TYPEPROGRAM_HALFWORD,  address, value);
 8000192:	683b      	ldr	r3, [r7, #0]
 8000194:	17da      	asrs	r2, r3, #31
 8000196:	461c      	mov	r4, r3
 8000198:	4615      	mov	r5, r2
 800019a:	4622      	mov	r2, r4
 800019c:	462b      	mov	r3, r5
 800019e:	6879      	ldr	r1, [r7, #4]
 80001a0:	2001      	movs	r0, #1
 80001a2:	f000 fa6d 	bl	8000680 <HAL_FLASH_Program>
	HAL_FLASH_Lock();
 80001a6:	f000 fb01 	bl	80007ac <HAL_FLASH_Lock>
}
 80001aa:	bf00      	nop
 80001ac:	3708      	adds	r7, #8
 80001ae:	46bd      	mov	sp, r7
 80001b0:	bdb0      	pop	{r4, r5, r7, pc}

080001b2 <Flash_read_int>:
{
	Flash_write_array(address, (uint8_t*)&data, sizeof(data));
}

int Flash_read_int (uint32_t address)
{
 80001b2:	b480      	push	{r7}
 80001b4:	b083      	sub	sp, #12
 80001b6:	af00      	add	r7, sp, #0
 80001b8:	6078      	str	r0, [r7, #4]
	return *(__IO uint16_t *)(address); //*(__IO uint16_t *) để ép kiểu và khai báo I/O tự động thay đổi được!
 80001ba:	687b      	ldr	r3, [r7, #4]
 80001bc:	881b      	ldrh	r3, [r3, #0]
 80001be:	b29b      	uxth	r3, r3
}
 80001c0:	4618      	mov	r0, r3
 80001c2:	370c      	adds	r7, #12
 80001c4:	46bd      	mov	sp, r7
 80001c6:	bc80      	pop	{r7}
 80001c8:	4770      	bx	lr
	...

080001cc <main>:
 80001cc:	b580      	push	{r7, lr}
 80001ce:	af00      	add	r7, sp, #0
 80001d0:	f000 f910 	bl	80003f4 <HAL_Init>
 80001d4:	f000 f816 	bl	8000204 <SystemClock_Config>
 80001d8:	f000 f85a 	bl	8000290 <MX_GPIO_Init>
 80001dc:	4807      	ldr	r0, [pc, #28]	@ (80001fc <main+0x30>)
 80001de:	f7ff ffb5 	bl	800014c <Flash_erase>
 80001e2:	f44f 717a 	mov.w	r1, #1000	@ 0x3e8
 80001e6:	4805      	ldr	r0, [pc, #20]	@ (80001fc <main+0x30>)
 80001e8:	f7ff ffcc 	bl	8000184 <Flash_write_int>
 80001ec:	4803      	ldr	r0, [pc, #12]	@ (80001fc <main+0x30>)
 80001ee:	f7ff ffe0 	bl	80001b2 <Flash_read_int>
 80001f2:	4603      	mov	r3, r0
 80001f4:	4a02      	ldr	r2, [pc, #8]	@ (8000200 <main+0x34>)
 80001f6:	6013      	str	r3, [r2, #0]
 80001f8:	bf00      	nop
 80001fa:	e7fd      	b.n	80001f8 <main+0x2c>
 80001fc:	0800fc00 	.word	0x0800fc00
 8000200:	2000002c 	.word	0x2000002c

08000204 <SystemClock_Config>:
 8000204:	b580      	push	{r7, lr}
 8000206:	b090      	sub	sp, #64	@ 0x40
 8000208:	af00      	add	r7, sp, #0
 800020a:	f107 0318 	add.w	r3, r7, #24
 800020e:	2228      	movs	r2, #40	@ 0x28
 8000210:	2100      	movs	r1, #0
 8000212:	4618      	mov	r0, r3
 8000214:	f001 f812 	bl	800123c <memset>
 8000218:	1d3b      	adds	r3, r7, #4
 800021a:	2200      	movs	r2, #0
 800021c:	601a      	str	r2, [r3, #0]
 800021e:	605a      	str	r2, [r3, #4]
 8000220:	609a      	str	r2, [r3, #8]
 8000222:	60da      	str	r2, [r3, #12]
 8000224:	611a      	str	r2, [r3, #16]
 8000226:	2301      	movs	r3, #1
 8000228:	61bb      	str	r3, [r7, #24]
 800022a:	f44f 3380 	mov.w	r3, #65536	@ 0x10000
 800022e:	61fb      	str	r3, [r7, #28]
 8000230:	2300      	movs	r3, #0
 8000232:	623b      	str	r3, [r7, #32]
 8000234:	2301      	movs	r3, #1
 8000236:	62bb      	str	r3, [r7, #40]	@ 0x28
 8000238:	2302      	movs	r3, #2
 800023a:	637b      	str	r3, [r7, #52]	@ 0x34
 800023c:	f44f 3380 	mov.w	r3, #65536	@ 0x10000
 8000240:	63bb      	str	r3, [r7, #56]	@ 0x38
 8000242:	f44f 13e0 	mov.w	r3, #1835008	@ 0x1c0000
 8000246:	63fb      	str	r3, [r7, #60]	@ 0x3c
 8000248:	f107 0318 	add.w	r3, r7, #24
 800024c:	4618      	mov	r0, r3
 800024e:	f000 fc17 	bl	8000a80 <HAL_RCC_OscConfig>
 8000252:	4603      	mov	r3, r0
 8000254:	2b00      	cmp	r3, #0
 8000256:	d001      	beq.n	800025c <SystemClock_Config+0x58>
 8000258:	f000 f83c 	bl	80002d4 <Error_Handler>
 800025c:	230f      	movs	r3, #15
 800025e:	607b      	str	r3, [r7, #4]
 8000260:	2302      	movs	r3, #2
 8000262:	60bb      	str	r3, [r7, #8]
 8000264:	2300      	movs	r3, #0
 8000266:	60fb      	str	r3, [r7, #12]
 8000268:	f44f 6380 	mov.w	r3, #1024	@ 0x400
 800026c:	613b      	str	r3, [r7, #16]
 800026e:	2300      	movs	r3, #0
 8000270:	617b      	str	r3, [r7, #20]
 8000272:	1d3b      	adds	r3, r7, #4
 8000274:	2102      	movs	r1, #2
 8000276:	4618      	mov	r0, r3
 8000278:	f000 fe84 	bl	8000f84 <HAL_RCC_ClockConfig>
 800027c:	4603      	mov	r3, r0
 800027e:	2b00      	cmp	r3, #0
 8000280:	d001      	beq.n	8000286 <SystemClock_Config+0x82>
 8000282:	f000 f827 	bl	80002d4 <Error_Handler>
 8000286:	bf00      	nop
 8000288:	3740      	adds	r7, #64	@ 0x40
 800028a:	46bd      	mov	sp, r7
 800028c:	bd80      	pop	{r7, pc}
	...

08000290 <MX_GPIO_Init>:
 8000290:	b480      	push	{r7}
 8000292:	b083      	sub	sp, #12
 8000294:	af00      	add	r7, sp, #0
 8000296:	4b0e      	ldr	r3, [pc, #56]	@ (80002d0 <MX_GPIO_Init+0x40>)
 8000298:	699b      	ldr	r3, [r3, #24]
 800029a:	4a0d      	ldr	r2, [pc, #52]	@ (80002d0 <MX_GPIO_Init+0x40>)
 800029c:	f043 0320 	orr.w	r3, r3, #32
 80002a0:	6193      	str	r3, [r2, #24]
 80002a2:	4b0b      	ldr	r3, [pc, #44]	@ (80002d0 <MX_GPIO_Init+0x40>)
 80002a4:	699b      	ldr	r3, [r3, #24]
 80002a6:	f003 0320 	and.w	r3, r3, #32
 80002aa:	607b      	str	r3, [r7, #4]
 80002ac:	687b      	ldr	r3, [r7, #4]
 80002ae:	4b08      	ldr	r3, [pc, #32]	@ (80002d0 <MX_GPIO_Init+0x40>)
 80002b0:	699b      	ldr	r3, [r3, #24]
 80002b2:	4a07      	ldr	r2, [pc, #28]	@ (80002d0 <MX_GPIO_Init+0x40>)
 80002b4:	f043 0304 	orr.w	r3, r3, #4
 80002b8:	6193      	str	r3, [r2, #24]
 80002ba:	4b05      	ldr	r3, [pc, #20]	@ (80002d0 <MX_GPIO_Init+0x40>)
 80002bc:	699b      	ldr	r3, [r3, #24]
 80002be:	f003 0304 	and.w	r3, r3, #4
 80002c2:	603b      	str	r3, [r7, #0]
 80002c4:	683b      	ldr	r3, [r7, #0]
 80002c6:	bf00      	nop
 80002c8:	370c      	adds	r7, #12
 80002ca:	46bd      	mov	sp, r7
 80002cc:	bc80      	pop	{r7}
 80002ce:	4770      	bx	lr
 80002d0:	40021000 	.word	0x40021000

080002d4 <Error_Handler>:
 80002d4:	b480      	push	{r7}
 80002d6:	af00      	add	r7, sp, #0
 80002d8:	b672      	cpsid	i
 80002da:	bf00      	nop
 80002dc:	bf00      	nop
 80002de:	e7fd      	b.n	80002dc <Error_Handler+0x8>

080002e0 <HAL_MspInit>:
 80002e0:	b480      	push	{r7}
 80002e2:	b085      	sub	sp, #20
 80002e4:	af00      	add	r7, sp, #0
 80002e6:	4b15      	ldr	r3, [pc, #84]	@ (800033c <HAL_MspInit+0x5c>)
 80002e8:	699b      	ldr	r3, [r3, #24]
 80002ea:	4a14      	ldr	r2, [pc, #80]	@ (800033c <HAL_MspInit+0x5c>)
 80002ec:	f043 0301 	orr.w	r3, r3, #1
 80002f0:	6193      	str	r3, [r2, #24]
 80002f2:	4b12      	ldr	r3, [pc, #72]	@ (800033c <HAL_MspInit+0x5c>)
 80002f4:	699b      	ldr	r3, [r3, #24]
 80002f6:	f003 0301 	and.w	r3, r3, #1
 80002fa:	60bb      	str	r3, [r7, #8]
 80002fc:	68bb      	ldr	r3, [r7, #8]
 80002fe:	4b0f      	ldr	r3, [pc, #60]	@ (800033c <HAL_MspInit+0x5c>)
 8000300:	69db      	ldr	r3, [r3, #28]
 8000302:	4a0e      	ldr	r2, [pc, #56]	@ (800033c <HAL_MspInit+0x5c>)
 8000304:	f043 5380 	orr.w	r3, r3, #268435456	@ 0x10000000
 8000308:	61d3      	str	r3, [r2, #28]
 800030a:	4b0c      	ldr	r3, [pc, #48]	@ (800033c <HAL_MspInit+0x5c>)
 800030c:	69db      	ldr	r3, [r3, #28]
 800030e:	f003 5380 	and.w	r3, r3, #268435456	@ 0x10000000
 8000312:	607b      	str	r3, [r7, #4]
 8000314:	687b      	ldr	r3, [r7, #4]
 8000316:	4b0a      	ldr	r3, [pc, #40]	@ (8000340 <HAL_MspInit+0x60>)
 8000318:	685b      	ldr	r3, [r3, #4]
 800031a:	60fb      	str	r3, [r7, #12]
 800031c:	68fb      	ldr	r3, [r7, #12]
 800031e:	f023 63e0 	bic.w	r3, r3, #117440512	@ 0x7000000
 8000322:	60fb      	str	r3, [r7, #12]
 8000324:	68fb      	ldr	r3, [r7, #12]
 8000326:	f043 7300 	orr.w	r3, r3, #33554432	@ 0x2000000
 800032a:	60fb      	str	r3, [r7, #12]
 800032c:	4a04      	ldr	r2, [pc, #16]	@ (8000340 <HAL_MspInit+0x60>)
 800032e:	68fb      	ldr	r3, [r7, #12]
 8000330:	6053      	str	r3, [r2, #4]
 8000332:	bf00      	nop
 8000334:	3714      	adds	r7, #20
 8000336:	46bd      	mov	sp, r7
 8000338:	bc80      	pop	{r7}
 800033a:	4770      	bx	lr
 800033c:	40021000 	.word	0x40021000
 8000340:	40010000 	.word	0x40010000

08000344 <NMI_Handler>:
 8000344:	b480      	push	{r7}
 8000346:	af00      	add	r7, sp, #0
 8000348:	bf00      	nop
 800034a:	e7fd      	b.n	8000348 <NMI_Handler+0x4>

0800034c <HardFault_Handler>:
 800034c:	b480      	push	{r7}
 800034e:	af00      	add	r7, sp, #0
 8000350:	bf00      	nop
 8000352:	e7fd      	b.n	8000350 <HardFault_Handler+0x4>

08000354 <MemManage_Handler>:
 8000354:	b480      	push	{r7}
 8000356:	af00      	add	r7, sp, #0
 8000358:	bf00      	nop
 800035a:	e7fd      	b.n	8000358 <MemManage_Handler+0x4>

0800035c <BusFault_Handler>:
 800035c:	b480      	push	{r7}
 800035e:	af00      	add	r7, sp, #0
 8000360:	bf00      	nop
 8000362:	e7fd      	b.n	8000360 <BusFault_Handler+0x4>

08000364 <UsageFault_Handler>:
 8000364:	b480      	push	{r7}
 8000366:	af00      	add	r7, sp, #0
 8000368:	bf00      	nop
 800036a:	e7fd      	b.n	8000368 <UsageFault_Handler+0x4>

0800036c <SVC_Handler>:
 800036c:	b480      	push	{r7}
 800036e:	af00      	add	r7, sp, #0
 8000370:	bf00      	nop
 8000372:	46bd      	mov	sp, r7
 8000374:	bc80      	pop	{r7}
 8000376:	4770      	bx	lr

08000378 <DebugMon_Handler>:
 8000378:	b480      	push	{r7}
 800037a:	af00      	add	r7, sp, #0
 800037c:	bf00      	nop
 800037e:	46bd      	mov	sp, r7
 8000380:	bc80      	pop	{r7}
 8000382:	4770      	bx	lr

08000384 <PendSV_Handler>:
 8000384:	b480      	push	{r7}
 8000386:	af00      	add	r7, sp, #0
 8000388:	bf00      	nop
 800038a:	46bd      	mov	sp, r7
 800038c:	bc80      	pop	{r7}
 800038e:	4770      	bx	lr

08000390 <SysTick_Handler>:
 8000390:	b580      	push	{r7, lr}
 8000392:	af00      	add	r7, sp, #0
 8000394:	f000 f874 	bl	8000480 <HAL_IncTick>
 8000398:	bf00      	nop
 800039a:	bd80      	pop	{r7, pc}

0800039c <SystemInit>:
 800039c:	b480      	push	{r7}
 800039e:	af00      	add	r7, sp, #0
 80003a0:	bf00      	nop
 80003a2:	46bd      	mov	sp, r7
 80003a4:	bc80      	pop	{r7}
 80003a6:	4770      	bx	lr

080003a8 <Reset_Handler>:
 80003a8:	f7ff fff8 	bl	800039c <SystemInit>
 80003ac:	480b      	ldr	r0, [pc, #44]	@ (80003dc <LoopFillZerobss+0xe>)
 80003ae:	490c      	ldr	r1, [pc, #48]	@ (80003e0 <LoopFillZerobss+0x12>)
 80003b0:	4a0c      	ldr	r2, [pc, #48]	@ (80003e4 <LoopFillZerobss+0x16>)
 80003b2:	2300      	movs	r3, #0
 80003b4:	e002      	b.n	80003bc <LoopCopyDataInit>

080003b6 <CopyDataInit>:
 80003b6:	58d4      	ldr	r4, [r2, r3]
 80003b8:	50c4      	str	r4, [r0, r3]
 80003ba:	3304      	adds	r3, #4

080003bc <LoopCopyDataInit>:
 80003bc:	18c4      	adds	r4, r0, r3
 80003be:	428c      	cmp	r4, r1
 80003c0:	d3f9      	bcc.n	80003b6 <CopyDataInit>
 80003c2:	4a09      	ldr	r2, [pc, #36]	@ (80003e8 <LoopFillZerobss+0x1a>)
 80003c4:	4c09      	ldr	r4, [pc, #36]	@ (80003ec <LoopFillZerobss+0x1e>)
 80003c6:	2300      	movs	r3, #0
 80003c8:	e001      	b.n	80003ce <LoopFillZerobss>

080003ca <FillZerobss>:
 80003ca:	6013      	str	r3, [r2, #0]
 80003cc:	3204      	adds	r2, #4

080003ce <LoopFillZerobss>:
 80003ce:	42a2      	cmp	r2, r4
 80003d0:	d3fb      	bcc.n	80003ca <FillZerobss>
 80003d2:	f000 ff3b 	bl	800124c <__libc_init_array>
 80003d6:	f7ff fef9 	bl	80001cc <main>
 80003da:	4770      	bx	lr
 80003dc:	20000000 	.word	0x20000000
 80003e0:	2000000c 	.word	0x2000000c
 80003e4:	080012d8 	.word	0x080012d8
 80003e8:	20000010 	.word	0x20000010
 80003ec:	20000058 	.word	0x20000058

080003f0 <ADC1_2_IRQHandler>:
 80003f0:	e7fe      	b.n	80003f0 <ADC1_2_IRQHandler>
	...

080003f4 <HAL_Init>:
 80003f4:	b580      	push	{r7, lr}
 80003f6:	af00      	add	r7, sp, #0
 80003f8:	4b08      	ldr	r3, [pc, #32]	@ (800041c <HAL_Init+0x28>)
 80003fa:	681b      	ldr	r3, [r3, #0]
 80003fc:	4a07      	ldr	r2, [pc, #28]	@ (800041c <HAL_Init+0x28>)
 80003fe:	f043 0310 	orr.w	r3, r3, #16
 8000402:	6013      	str	r3, [r2, #0]
 8000404:	2003      	movs	r0, #3
 8000406:	f000 f907 	bl	8000618 <HAL_NVIC_SetPriorityGrouping>
 800040a:	200f      	movs	r0, #15
 800040c:	f000 f808 	bl	8000420 <HAL_InitTick>
 8000410:	f7ff ff66 	bl	80002e0 <HAL_MspInit>
 8000414:	2300      	movs	r3, #0
 8000416:	4618      	mov	r0, r3
 8000418:	bd80      	pop	{r7, pc}
 800041a:	bf00      	nop
 800041c:	40022000 	.word	0x40022000

08000420 <HAL_InitTick>:
 8000420:	b580      	push	{r7, lr}
 8000422:	b082      	sub	sp, #8
 8000424:	af00      	add	r7, sp, #0
 8000426:	6078      	str	r0, [r7, #4]
 8000428:	4b12      	ldr	r3, [pc, #72]	@ (8000474 <HAL_InitTick+0x54>)
 800042a:	681a      	ldr	r2, [r3, #0]
 800042c:	4b12      	ldr	r3, [pc, #72]	@ (8000478 <HAL_InitTick+0x58>)
 800042e:	781b      	ldrb	r3, [r3, #0]
 8000430:	4619      	mov	r1, r3
 8000432:	f44f 737a 	mov.w	r3, #1000	@ 0x3e8
 8000436:	fbb3 f3f1 	udiv	r3, r3, r1
 800043a:	fbb2 f3f3 	udiv	r3, r2, r3
 800043e:	4618      	mov	r0, r3
 8000440:	f000 f911 	bl	8000666 <HAL_SYSTICK_Config>
 8000444:	4603      	mov	r3, r0
 8000446:	2b00      	cmp	r3, #0
 8000448:	d001      	beq.n	800044e <HAL_InitTick+0x2e>
 800044a:	2301      	movs	r3, #1
 800044c:	e00e      	b.n	800046c <HAL_InitTick+0x4c>
 800044e:	687b      	ldr	r3, [r7, #4]
 8000450:	2b0f      	cmp	r3, #15
 8000452:	d80a      	bhi.n	800046a <HAL_InitTick+0x4a>
 8000454:	2200      	movs	r2, #0
 8000456:	6879      	ldr	r1, [r7, #4]
 8000458:	f04f 30ff 	mov.w	r0, #4294967295
 800045c:	f000 f8e7 	bl	800062e <HAL_NVIC_SetPriority>
 8000460:	4a06      	ldr	r2, [pc, #24]	@ (800047c <HAL_InitTick+0x5c>)
 8000462:	687b      	ldr	r3, [r7, #4]
 8000464:	6013      	str	r3, [r2, #0]
 8000466:	2300      	movs	r3, #0
 8000468:	e000      	b.n	800046c <HAL_InitTick+0x4c>
 800046a:	2301      	movs	r3, #1
 800046c:	4618      	mov	r0, r3
 800046e:	3708      	adds	r7, #8
 8000470:	46bd      	mov	sp, r7
 8000472:	bd80      	pop	{r7, pc}
 8000474:	20000000 	.word	0x20000000
 8000478:	20000008 	.word	0x20000008
 800047c:	20000004 	.word	0x20000004

08000480 <HAL_IncTick>:
 8000480:	b480      	push	{r7}
 8000482:	af00      	add	r7, sp, #0
 8000484:	4b05      	ldr	r3, [pc, #20]	@ (800049c <HAL_IncTick+0x1c>)
 8000486:	781b      	ldrb	r3, [r3, #0]
 8000488:	461a      	mov	r2, r3
 800048a:	4b05      	ldr	r3, [pc, #20]	@ (80004a0 <HAL_IncTick+0x20>)
 800048c:	681b      	ldr	r3, [r3, #0]
 800048e:	4413      	add	r3, r2
 8000490:	4a03      	ldr	r2, [pc, #12]	@ (80004a0 <HAL_IncTick+0x20>)
 8000492:	6013      	str	r3, [r2, #0]
 8000494:	bf00      	nop
 8000496:	46bd      	mov	sp, r7
 8000498:	bc80      	pop	{r7}
 800049a:	4770      	bx	lr
 800049c:	20000008 	.word	0x20000008
 80004a0:	20000030 	.word	0x20000030

080004a4 <HAL_GetTick>:
 80004a4:	b480      	push	{r7}
 80004a6:	af00      	add	r7, sp, #0
 80004a8:	4b02      	ldr	r3, [pc, #8]	@ (80004b4 <HAL_GetTick+0x10>)
 80004aa:	681b      	ldr	r3, [r3, #0]
 80004ac:	4618      	mov	r0, r3
 80004ae:	46bd      	mov	sp, r7
 80004b0:	bc80      	pop	{r7}
 80004b2:	4770      	bx	lr
 80004b4:	20000030 	.word	0x20000030

080004b8 <__NVIC_SetPriorityGrouping>:
 80004b8:	b480      	push	{r7}
 80004ba:	b085      	sub	sp, #20
 80004bc:	af00      	add	r7, sp, #0
 80004be:	6078      	str	r0, [r7, #4]
 80004c0:	687b      	ldr	r3, [r7, #4]
 80004c2:	f003 0307 	and.w	r3, r3, #7
 80004c6:	60fb      	str	r3, [r7, #12]
 80004c8:	4b0c      	ldr	r3, [pc, #48]	@ (80004fc <__NVIC_SetPriorityGrouping+0x44>)
 80004ca:	68db      	ldr	r3, [r3, #12]
 80004cc:	60bb      	str	r3, [r7, #8]
 80004ce:	68ba      	ldr	r2, [r7, #8]
 80004d0:	f64f 03ff 	movw	r3, #63743	@ 0xf8ff
 80004d4:	4013      	ands	r3, r2
 80004d6:	60bb      	str	r3, [r7, #8]
 80004d8:	68fb      	ldr	r3, [r7, #12]
 80004da:	021a      	lsls	r2, r3, #8
 80004dc:	68bb      	ldr	r3, [r7, #8]
 80004de:	4313      	orrs	r3, r2
 80004e0:	f043 63bf 	orr.w	r3, r3, #100139008	@ 0x5f80000
 80004e4:	f443 3300 	orr.w	r3, r3, #131072	@ 0x20000
 80004e8:	60bb      	str	r3, [r7, #8]
 80004ea:	4a04      	ldr	r2, [pc, #16]	@ (80004fc <__NVIC_SetPriorityGrouping+0x44>)
 80004ec:	68bb      	ldr	r3, [r7, #8]
 80004ee:	60d3      	str	r3, [r2, #12]
 80004f0:	bf00      	nop
 80004f2:	3714      	adds	r7, #20
 80004f4:	46bd      	mov	sp, r7
 80004f6:	bc80      	pop	{r7}
 80004f8:	4770      	bx	lr
 80004fa:	bf00      	nop
 80004fc:	e000ed00 	.word	0xe000ed00

08000500 <__NVIC_GetPriorityGrouping>:
 8000500:	b480      	push	{r7}
 8000502:	af00      	add	r7, sp, #0
 8000504:	4b04      	ldr	r3, [pc, #16]	@ (8000518 <__NVIC_GetPriorityGrouping+0x18>)
 8000506:	68db      	ldr	r3, [r3, #12]
 8000508:	0a1b      	lsrs	r3, r3, #8
 800050a:	f003 0307 	and.w	r3, r3, #7
 800050e:	4618      	mov	r0, r3
 8000510:	46bd      	mov	sp, r7
 8000512:	bc80      	pop	{r7}
 8000514:	4770      	bx	lr
 8000516:	bf00      	nop
 8000518:	e000ed00 	.word	0xe000ed00

0800051c <__NVIC_SetPriority>:
 800051c:	b480      	push	{r7}
 800051e:	b083      	sub	sp, #12
 8000520:	af00      	add	r7, sp, #0
 8000522:	4603      	mov	r3, r0
 8000524:	6039      	str	r1, [r7, #0]
 8000526:	71fb      	strb	r3, [r7, #7]
 8000528:	f997 3007 	ldrsb.w	r3, [r7, #7]
 800052c:	2b00      	cmp	r3, #0
 800052e:	db0a      	blt.n	8000546 <__NVIC_SetPriority+0x2a>
 8000530:	683b      	ldr	r3, [r7, #0]
 8000532:	b2da      	uxtb	r2, r3
 8000534:	490c      	ldr	r1, [pc, #48]	@ (8000568 <__NVIC_SetPriority+0x4c>)
 8000536:	f997 3007 	ldrsb.w	r3, [r7, #7]
 800053a:	0112      	lsls	r2, r2, #4
 800053c:	b2d2      	uxtb	r2, r2
 800053e:	440b      	add	r3, r1
 8000540:	f883 2300 	strb.w	r2, [r3, #768]	@ 0x300
 8000544:	e00a      	b.n	800055c <__NVIC_SetPriority+0x40>
 8000546:	683b      	ldr	r3, [r7, #0]
 8000548:	b2da      	uxtb	r2, r3
 800054a:	4908      	ldr	r1, [pc, #32]	@ (800056c <__NVIC_SetPriority+0x50>)
 800054c:	79fb      	ldrb	r3, [r7, #7]
 800054e:	f003 030f 	and.w	r3, r3, #15
 8000552:	3b04      	subs	r3, #4
 8000554:	0112      	lsls	r2, r2, #4
 8000556:	b2d2      	uxtb	r2, r2
 8000558:	440b      	add	r3, r1
 800055a:	761a      	strb	r2, [r3, #24]
 800055c:	bf00      	nop
 800055e:	370c      	adds	r7, #12
 8000560:	46bd      	mov	sp, r7
 8000562:	bc80      	pop	{r7}
 8000564:	4770      	bx	lr
 8000566:	bf00      	nop
 8000568:	e000e100 	.word	0xe000e100
 800056c:	e000ed00 	.word	0xe000ed00

08000570 <NVIC_EncodePriority>:
 8000570:	b480      	push	{r7}
 8000572:	b089      	sub	sp, #36	@ 0x24
 8000574:	af00      	add	r7, sp, #0
 8000576:	60f8      	str	r0, [r7, #12]
 8000578:	60b9      	str	r1, [r7, #8]
 800057a:	607a      	str	r2, [r7, #4]
 800057c:	68fb      	ldr	r3, [r7, #12]
 800057e:	f003 0307 	and.w	r3, r3, #7
 8000582:	61fb      	str	r3, [r7, #28]
 8000584:	69fb      	ldr	r3, [r7, #28]
 8000586:	f1c3 0307 	rsb	r3, r3, #7
 800058a:	2b04      	cmp	r3, #4
 800058c:	bf28      	it	cs
 800058e:	2304      	movcs	r3, #4
 8000590:	61bb      	str	r3, [r7, #24]
 8000592:	69fb      	ldr	r3, [r7, #28]
 8000594:	3304      	adds	r3, #4
 8000596:	2b06      	cmp	r3, #6
 8000598:	d902      	bls.n	80005a0 <NVIC_EncodePriority+0x30>
 800059a:	69fb      	ldr	r3, [r7, #28]
 800059c:	3b03      	subs	r3, #3
 800059e:	e000      	b.n	80005a2 <NVIC_EncodePriority+0x32>
 80005a0:	2300      	movs	r3, #0
 80005a2:	617b      	str	r3, [r7, #20]
 80005a4:	f04f 32ff 	mov.w	r2, #4294967295
 80005a8:	69bb      	ldr	r3, [r7, #24]
 80005aa:	fa02 f303 	lsl.w	r3, r2, r3
 80005ae:	43da      	mvns	r2, r3
 80005b0:	68bb      	ldr	r3, [r7, #8]
 80005b2:	401a      	ands	r2, r3
 80005b4:	697b      	ldr	r3, [r7, #20]
 80005b6:	409a      	lsls	r2, r3
 80005b8:	f04f 31ff 	mov.w	r1, #4294967295
 80005bc:	697b      	ldr	r3, [r7, #20]
 80005be:	fa01 f303 	lsl.w	r3, r1, r3
 80005c2:	43d9      	mvns	r1, r3
 80005c4:	687b      	ldr	r3, [r7, #4]
 80005c6:	400b      	ands	r3, r1
 80005c8:	4313      	orrs	r3, r2
 80005ca:	4618      	mov	r0, r3
 80005cc:	3724      	adds	r7, #36	@ 0x24
 80005ce:	46bd      	mov	sp, r7
 80005d0:	bc80      	pop	{r7}
 80005d2:	4770      	bx	lr

080005d4 <SysTick_Config>:
 80005d4:	b580      	push	{r7, lr}
 80005d6:	b082      	sub	sp, #8
 80005d8:	af00      	add	r7, sp, #0
 80005da:	6078      	str	r0, [r7, #4]
 80005dc:	687b      	ldr	r3, [r7, #4]
 80005de:	3b01      	subs	r3, #1
 80005e0:	f1b3 7f80 	cmp.w	r3, #16777216	@ 0x1000000
 80005e4:	d301      	bcc.n	80005ea <SysTick_Config+0x16>
 80005e6:	2301      	movs	r3, #1
 80005e8:	e00f      	b.n	800060a <SysTick_Config+0x36>
 80005ea:	4a0a      	ldr	r2, [pc, #40]	@ (8000614 <SysTick_Config+0x40>)
 80005ec:	687b      	ldr	r3, [r7, #4]
 80005ee:	3b01      	subs	r3, #1
 80005f0:	6053      	str	r3, [r2, #4]
 80005f2:	210f      	movs	r1, #15
 80005f4:	f04f 30ff 	mov.w	r0, #4294967295
 80005f8:	f7ff ff90 	bl	800051c <__NVIC_SetPriority>
 80005fc:	4b05      	ldr	r3, [pc, #20]	@ (8000614 <SysTick_Config+0x40>)
 80005fe:	2200      	movs	r2, #0
 8000600:	609a      	str	r2, [r3, #8]
 8000602:	4b04      	ldr	r3, [pc, #16]	@ (8000614 <SysTick_Config+0x40>)
 8000604:	2207      	movs	r2, #7
 8000606:	601a      	str	r2, [r3, #0]
 8000608:	2300      	movs	r3, #0
 800060a:	4618      	mov	r0, r3
 800060c:	3708      	adds	r7, #8
 800060e:	46bd      	mov	sp, r7
 8000610:	bd80      	pop	{r7, pc}
 8000612:	bf00      	nop
 8000614:	e000e010 	.word	0xe000e010

08000618 <HAL_NVIC_SetPriorityGrouping>:
 8000618:	b580      	push	{r7, lr}
 800061a:	b082      	sub	sp, #8
 800061c:	af00      	add	r7, sp, #0
 800061e:	6078      	str	r0, [r7, #4]
 8000620:	6878      	ldr	r0, [r7, #4]
 8000622:	f7ff ff49 	bl	80004b8 <__NVIC_SetPriorityGrouping>
 8000626:	bf00      	nop
 8000628:	3708      	adds	r7, #8
 800062a:	46bd      	mov	sp, r7
 800062c:	bd80      	pop	{r7, pc}

0800062e <HAL_NVIC_SetPriority>:
 800062e:	b580      	push	{r7, lr}
 8000630:	b086      	sub	sp, #24
 8000632:	af00      	add	r7, sp, #0
 8000634:	4603      	mov	r3, r0
 8000636:	60b9      	str	r1, [r7, #8]
 8000638:	607a      	str	r2, [r7, #4]
 800063a:	73fb      	strb	r3, [r7, #15]
 800063c:	2300      	movs	r3, #0
 800063e:	617b      	str	r3, [r7, #20]
 8000640:	f7ff ff5e 	bl	8000500 <__NVIC_GetPriorityGrouping>
 8000644:	6178      	str	r0, [r7, #20]
 8000646:	687a      	ldr	r2, [r7, #4]
 8000648:	68b9      	ldr	r1, [r7, #8]
 800064a:	6978      	ldr	r0, [r7, #20]
 800064c:	f7ff ff90 	bl	8000570 <NVIC_EncodePriority>
 8000650:	4602      	mov	r2, r0
 8000652:	f997 300f 	ldrsb.w	r3, [r7, #15]
 8000656:	4611      	mov	r1, r2
 8000658:	4618      	mov	r0, r3
 800065a:	f7ff ff5f 	bl	800051c <__NVIC_SetPriority>
 800065e:	bf00      	nop
 8000660:	3718      	adds	r7, #24
 8000662:	46bd      	mov	sp, r7
 8000664:	bd80      	pop	{r7, pc}

08000666 <HAL_SYSTICK_Config>:
 8000666:	b580      	push	{r7, lr}
 8000668:	b082      	sub	sp, #8
 800066a:	af00      	add	r7, sp, #0
 800066c:	6078      	str	r0, [r7, #4]
 800066e:	6878      	ldr	r0, [r7, #4]
 8000670:	f7ff ffb0 	bl	80005d4 <SysTick_Config>
 8000674:	4603      	mov	r3, r0
 8000676:	4618      	mov	r0, r3
 8000678:	3708      	adds	r7, #8
 800067a:	46bd      	mov	sp, r7
 800067c:	bd80      	pop	{r7, pc}
	...

08000680 <HAL_FLASH_Program>:
 8000680:	b5f0      	push	{r4, r5, r6, r7, lr}
 8000682:	b087      	sub	sp, #28
 8000684:	af00      	add	r7, sp, #0
 8000686:	60f8      	str	r0, [r7, #12]
 8000688:	60b9      	str	r1, [r7, #8]
 800068a:	e9c7 2300 	strd	r2, r3, [r7]
 800068e:	2301      	movs	r3, #1
 8000690:	75fb      	strb	r3, [r7, #23]
 8000692:	2300      	movs	r3, #0
 8000694:	75bb      	strb	r3, [r7, #22]
 8000696:	2300      	movs	r3, #0
 8000698:	757b      	strb	r3, [r7, #21]
 800069a:	4b2f      	ldr	r3, [pc, #188]	@ (8000758 <HAL_FLASH_Program+0xd8>)
 800069c:	7e1b      	ldrb	r3, [r3, #24]
 800069e:	2b01      	cmp	r3, #1
 80006a0:	d101      	bne.n	80006a6 <HAL_FLASH_Program+0x26>
 80006a2:	2302      	movs	r3, #2
 80006a4:	e054      	b.n	8000750 <HAL_FLASH_Program+0xd0>
 80006a6:	4b2c      	ldr	r3, [pc, #176]	@ (8000758 <HAL_FLASH_Program+0xd8>)
 80006a8:	2201      	movs	r2, #1
 80006aa:	761a      	strb	r2, [r3, #24]
 80006ac:	f24c 3050 	movw	r0, #50000	@ 0xc350
 80006b0:	f000 f8a8 	bl	8000804 <FLASH_WaitForLastOperation>
 80006b4:	4603      	mov	r3, r0
 80006b6:	75fb      	strb	r3, [r7, #23]
 80006b8:	7dfb      	ldrb	r3, [r7, #23]
 80006ba:	2b00      	cmp	r3, #0
 80006bc:	d144      	bne.n	8000748 <HAL_FLASH_Program+0xc8>
 80006be:	68fb      	ldr	r3, [r7, #12]
 80006c0:	2b01      	cmp	r3, #1
 80006c2:	d102      	bne.n	80006ca <HAL_FLASH_Program+0x4a>
 80006c4:	2301      	movs	r3, #1
 80006c6:	757b      	strb	r3, [r7, #21]
 80006c8:	e007      	b.n	80006da <HAL_FLASH_Program+0x5a>
 80006ca:	68fb      	ldr	r3, [r7, #12]
 80006cc:	2b02      	cmp	r3, #2
 80006ce:	d102      	bne.n	80006d6 <HAL_FLASH_Program+0x56>
 80006d0:	2302      	movs	r3, #2
 80006d2:	757b      	strb	r3, [r7, #21]
 80006d4:	e001      	b.n	80006da <HAL_FLASH_Program+0x5a>
 80006d6:	2304      	movs	r3, #4
 80006d8:	757b      	strb	r3, [r7, #21]
 80006da:	2300      	movs	r3, #0
 80006dc:	75bb      	strb	r3, [r7, #22]
 80006de:	e02d      	b.n	800073c <HAL_FLASH_Program+0xbc>
 80006e0:	7dbb      	ldrb	r3, [r7, #22]
 80006e2:	005a      	lsls	r2, r3, #1
 80006e4:	68bb      	ldr	r3, [r7, #8]
 80006e6:	eb02 0c03 	add.w	ip, r2, r3
 80006ea:	7dbb      	ldrb	r3, [r7, #22]
 80006ec:	0119      	lsls	r1, r3, #4
 80006ee:	e9d7 2300 	ldrd	r2, r3, [r7]
 80006f2:	f1c1 0620 	rsb	r6, r1, #32
 80006f6:	f1a1 0020 	sub.w	r0, r1, #32
 80006fa:	fa22 f401 	lsr.w	r4, r2, r1
 80006fe:	fa03 f606 	lsl.w	r6, r3, r6
 8000702:	4334      	orrs	r4, r6
 8000704:	fa23 f000 	lsr.w	r0, r3, r0
 8000708:	4304      	orrs	r4, r0
 800070a:	fa23 f501 	lsr.w	r5, r3, r1
 800070e:	b2a3      	uxth	r3, r4
 8000710:	4619      	mov	r1, r3
 8000712:	4660      	mov	r0, ip
 8000714:	f000 f85a 	bl	80007cc <FLASH_Program_HalfWord>
 8000718:	f24c 3050 	movw	r0, #50000	@ 0xc350
 800071c:	f000 f872 	bl	8000804 <FLASH_WaitForLastOperation>
 8000720:	4603      	mov	r3, r0
 8000722:	75fb      	strb	r3, [r7, #23]
 8000724:	4b0d      	ldr	r3, [pc, #52]	@ (800075c <HAL_FLASH_Program+0xdc>)
 8000726:	691b      	ldr	r3, [r3, #16]
 8000728:	4a0c      	ldr	r2, [pc, #48]	@ (800075c <HAL_FLASH_Program+0xdc>)
 800072a:	f023 0301 	bic.w	r3, r3, #1
 800072e:	6113      	str	r3, [r2, #16]
 8000730:	7dfb      	ldrb	r3, [r7, #23]
 8000732:	2b00      	cmp	r3, #0
 8000734:	d107      	bne.n	8000746 <HAL_FLASH_Program+0xc6>
 8000736:	7dbb      	ldrb	r3, [r7, #22]
 8000738:	3301      	adds	r3, #1
 800073a:	75bb      	strb	r3, [r7, #22]
 800073c:	7dba      	ldrb	r2, [r7, #22]
 800073e:	7d7b      	ldrb	r3, [r7, #21]
 8000740:	429a      	cmp	r2, r3
 8000742:	d3cd      	bcc.n	80006e0 <HAL_FLASH_Program+0x60>
 8000744:	e000      	b.n	8000748 <HAL_FLASH_Program+0xc8>
 8000746:	bf00      	nop
 8000748:	4b03      	ldr	r3, [pc, #12]	@ (8000758 <HAL_FLASH_Program+0xd8>)
 800074a:	2200      	movs	r2, #0
 800074c:	761a      	strb	r2, [r3, #24]
 800074e:	7dfb      	ldrb	r3, [r7, #23]
 8000750:	4618      	mov	r0, r3
 8000752:	371c      	adds	r7, #28
 8000754:	46bd      	mov	sp, r7
 8000756:	bdf0      	pop	{r4, r5, r6, r7, pc}
 8000758:	20000038 	.word	0x20000038
 800075c:	40022000 	.word	0x40022000

08000760 <HAL_FLASH_Unlock>:
 8000760:	b480      	push	{r7}
 8000762:	b083      	sub	sp, #12
 8000764:	af00      	add	r7, sp, #0
 8000766:	2300      	movs	r3, #0
 8000768:	71fb      	strb	r3, [r7, #7]
 800076a:	4b0d      	ldr	r3, [pc, #52]	@ (80007a0 <HAL_FLASH_Unlock+0x40>)
 800076c:	691b      	ldr	r3, [r3, #16]
 800076e:	f003 0380 	and.w	r3, r3, #128	@ 0x80
 8000772:	2b00      	cmp	r3, #0
 8000774:	d00d      	beq.n	8000792 <HAL_FLASH_Unlock+0x32>
 8000776:	4b0a      	ldr	r3, [pc, #40]	@ (80007a0 <HAL_FLASH_Unlock+0x40>)
 8000778:	4a0a      	ldr	r2, [pc, #40]	@ (80007a4 <HAL_FLASH_Unlock+0x44>)
 800077a:	605a      	str	r2, [r3, #4]
 800077c:	4b08      	ldr	r3, [pc, #32]	@ (80007a0 <HAL_FLASH_Unlock+0x40>)
 800077e:	4a0a      	ldr	r2, [pc, #40]	@ (80007a8 <HAL_FLASH_Unlock+0x48>)
 8000780:	605a      	str	r2, [r3, #4]
 8000782:	4b07      	ldr	r3, [pc, #28]	@ (80007a0 <HAL_FLASH_Unlock+0x40>)
 8000784:	691b      	ldr	r3, [r3, #16]
 8000786:	f003 0380 	and.w	r3, r3, #128	@ 0x80
 800078a:	2b00      	cmp	r3, #0
 800078c:	d001      	beq.n	8000792 <HAL_FLASH_Unlock+0x32>
 800078e:	2301      	movs	r3, #1
 8000790:	71fb      	strb	r3, [r7, #7]
 8000792:	79fb      	ldrb	r3, [r7, #7]
 8000794:	4618      	mov	r0, r3
 8000796:	370c      	adds	r7, #12
 8000798:	46bd      	mov	sp, r7
 800079a:	bc80      	pop	{r7}
 800079c:	4770      	bx	lr
 800079e:	bf00      	nop
 80007a0:	40022000 	.word	0x40022000
 80007a4:	45670123 	.word	0x45670123
 80007a8:	cdef89ab 	.word	0xcdef89ab

080007ac <HAL_FLASH_Lock>:
 80007ac:	b480      	push	{r7}
 80007ae:	af00      	add	r7, sp, #0
 80007b0:	4b05      	ldr	r3, [pc, #20]	@ (80007c8 <HAL_FLASH_Lock+0x1c>)
 80007b2:	691b      	ldr	r3, [r3, #16]
 80007b4:	4a04      	ldr	r2, [pc, #16]	@ (80007c8 <HAL_FLASH_Lock+0x1c>)
 80007b6:	f043 0380 	orr.w	r3, r3, #128	@ 0x80
 80007ba:	6113      	str	r3, [r2, #16]
 80007bc:	2300      	movs	r3, #0
 80007be:	4618      	mov	r0, r3
 80007c0:	46bd      	mov	sp, r7
 80007c2:	bc80      	pop	{r7}
 80007c4:	4770      	bx	lr
 80007c6:	bf00      	nop
 80007c8:	40022000 	.word	0x40022000

080007cc <FLASH_Program_HalfWord>:
 80007cc:	b480      	push	{r7}
 80007ce:	b083      	sub	sp, #12
 80007d0:	af00      	add	r7, sp, #0
 80007d2:	6078      	str	r0, [r7, #4]
 80007d4:	460b      	mov	r3, r1
 80007d6:	807b      	strh	r3, [r7, #2]
 80007d8:	4b08      	ldr	r3, [pc, #32]	@ (80007fc <FLASH_Program_HalfWord+0x30>)
 80007da:	2200      	movs	r2, #0
 80007dc:	61da      	str	r2, [r3, #28]
 80007de:	4b08      	ldr	r3, [pc, #32]	@ (8000800 <FLASH_Program_HalfWord+0x34>)
 80007e0:	691b      	ldr	r3, [r3, #16]
 80007e2:	4a07      	ldr	r2, [pc, #28]	@ (8000800 <FLASH_Program_HalfWord+0x34>)
 80007e4:	f043 0301 	orr.w	r3, r3, #1
 80007e8:	6113      	str	r3, [r2, #16]
 80007ea:	687b      	ldr	r3, [r7, #4]
 80007ec:	887a      	ldrh	r2, [r7, #2]
 80007ee:	801a      	strh	r2, [r3, #0]
 80007f0:	bf00      	nop
 80007f2:	370c      	adds	r7, #12
 80007f4:	46bd      	mov	sp, r7
 80007f6:	bc80      	pop	{r7}
 80007f8:	4770      	bx	lr
 80007fa:	bf00      	nop
 80007fc:	20000038 	.word	0x20000038
 8000800:	40022000 	.word	0x40022000

08000804 <FLASH_WaitForLastOperation>:
 8000804:	b580      	push	{r7, lr}
 8000806:	b084      	sub	sp, #16
 8000808:	af00      	add	r7, sp, #0
 800080a:	6078      	str	r0, [r7, #4]
 800080c:	f7ff fe4a 	bl	80004a4 <HAL_GetTick>
 8000810:	60f8      	str	r0, [r7, #12]
 8000812:	e010      	b.n	8000836 <FLASH_WaitForLastOperation+0x32>
 8000814:	687b      	ldr	r3, [r7, #4]
 8000816:	f1b3 3fff 	cmp.w	r3, #4294967295
 800081a:	d00c      	beq.n	8000836 <FLASH_WaitForLastOperation+0x32>
 800081c:	687b      	ldr	r3, [r7, #4]
 800081e:	2b00      	cmp	r3, #0
 8000820:	d007      	beq.n	8000832 <FLASH_WaitForLastOperation+0x2e>
 8000822:	f7ff fe3f 	bl	80004a4 <HAL_GetTick>
 8000826:	4602      	mov	r2, r0
 8000828:	68fb      	ldr	r3, [r7, #12]
 800082a:	1ad3      	subs	r3, r2, r3
 800082c:	687a      	ldr	r2, [r7, #4]
 800082e:	429a      	cmp	r2, r3
 8000830:	d201      	bcs.n	8000836 <FLASH_WaitForLastOperation+0x32>
 8000832:	2303      	movs	r3, #3
 8000834:	e025      	b.n	8000882 <FLASH_WaitForLastOperation+0x7e>
 8000836:	4b15      	ldr	r3, [pc, #84]	@ (800088c <FLASH_WaitForLastOperation+0x88>)
 8000838:	68db      	ldr	r3, [r3, #12]
 800083a:	f003 0301 	and.w	r3, r3, #1
 800083e:	2b00      	cmp	r3, #0
 8000840:	d1e8      	bne.n	8000814 <FLASH_WaitForLastOperation+0x10>
 8000842:	4b12      	ldr	r3, [pc, #72]	@ (800088c <FLASH_WaitForLastOperation+0x88>)
 8000844:	68db      	ldr	r3, [r3, #12]
 8000846:	f003 0320 	and.w	r3, r3, #32
 800084a:	2b00      	cmp	r3, #0
 800084c:	d002      	beq.n	8000854 <FLASH_WaitForLastOperation+0x50>
 800084e:	4b0f      	ldr	r3, [pc, #60]	@ (800088c <FLASH_WaitForLastOperation+0x88>)
 8000850:	2220      	movs	r2, #32
 8000852:	60da      	str	r2, [r3, #12]
 8000854:	4b0d      	ldr	r3, [pc, #52]	@ (800088c <FLASH_WaitForLastOperation+0x88>)
 8000856:	68db      	ldr	r3, [r3, #12]
 8000858:	f003 0310 	and.w	r3, r3, #16
 800085c:	2b00      	cmp	r3, #0
 800085e:	d10b      	bne.n	8000878 <FLASH_WaitForLastOperation+0x74>
 8000860:	4b0a      	ldr	r3, [pc, #40]	@ (800088c <FLASH_WaitForLastOperation+0x88>)
 8000862:	69db      	ldr	r3, [r3, #28]
 8000864:	f003 0301 	and.w	r3, r3, #1
 8000868:	2b00      	cmp	r3, #0
 800086a:	d105      	bne.n	8000878 <FLASH_WaitForLastOperation+0x74>
 800086c:	4b07      	ldr	r3, [pc, #28]	@ (800088c <FLASH_WaitForLastOperation+0x88>)
 800086e:	68db      	ldr	r3, [r3, #12]
 8000870:	f003 0304 	and.w	r3, r3, #4
 8000874:	2b00      	cmp	r3, #0
 8000876:	d003      	beq.n	8000880 <FLASH_WaitForLastOperation+0x7c>
 8000878:	f000 f80a 	bl	8000890 <FLASH_SetErrorCode>
 800087c:	2301      	movs	r3, #1
 800087e:	e000      	b.n	8000882 <FLASH_WaitForLastOperation+0x7e>
 8000880:	2300      	movs	r3, #0
 8000882:	4618      	mov	r0, r3
 8000884:	3710      	adds	r7, #16
 8000886:	46bd      	mov	sp, r7
 8000888:	bd80      	pop	{r7, pc}
 800088a:	bf00      	nop
 800088c:	40022000 	.word	0x40022000

08000890 <FLASH_SetErrorCode>:
 8000890:	b480      	push	{r7}
 8000892:	b083      	sub	sp, #12
 8000894:	af00      	add	r7, sp, #0
 8000896:	2300      	movs	r3, #0
 8000898:	607b      	str	r3, [r7, #4]
 800089a:	4b23      	ldr	r3, [pc, #140]	@ (8000928 <FLASH_SetErrorCode+0x98>)
 800089c:	68db      	ldr	r3, [r3, #12]
 800089e:	f003 0310 	and.w	r3, r3, #16
 80008a2:	2b00      	cmp	r3, #0
 80008a4:	d009      	beq.n	80008ba <FLASH_SetErrorCode+0x2a>
 80008a6:	4b21      	ldr	r3, [pc, #132]	@ (800092c <FLASH_SetErrorCode+0x9c>)
 80008a8:	69db      	ldr	r3, [r3, #28]
 80008aa:	f043 0302 	orr.w	r3, r3, #2
 80008ae:	4a1f      	ldr	r2, [pc, #124]	@ (800092c <FLASH_SetErrorCode+0x9c>)
 80008b0:	61d3      	str	r3, [r2, #28]
 80008b2:	687b      	ldr	r3, [r7, #4]
 80008b4:	f043 0310 	orr.w	r3, r3, #16
 80008b8:	607b      	str	r3, [r7, #4]
 80008ba:	4b1b      	ldr	r3, [pc, #108]	@ (8000928 <FLASH_SetErrorCode+0x98>)
 80008bc:	68db      	ldr	r3, [r3, #12]
 80008be:	f003 0304 	and.w	r3, r3, #4
 80008c2:	2b00      	cmp	r3, #0
 80008c4:	d009      	beq.n	80008da <FLASH_SetErrorCode+0x4a>
 80008c6:	4b19      	ldr	r3, [pc, #100]	@ (800092c <FLASH_SetErrorCode+0x9c>)
 80008c8:	69db      	ldr	r3, [r3, #28]
 80008ca:	f043 0301 	orr.w	r3, r3, #1
 80008ce:	4a17      	ldr	r2, [pc, #92]	@ (800092c <FLASH_SetErrorCode+0x9c>)
 80008d0:	61d3      	str	r3, [r2, #28]
 80008d2:	687b      	ldr	r3, [r7, #4]
 80008d4:	f043 0304 	orr.w	r3, r3, #4
 80008d8:	607b      	str	r3, [r7, #4]
 80008da:	4b13      	ldr	r3, [pc, #76]	@ (8000928 <FLASH_SetErrorCode+0x98>)
 80008dc:	69db      	ldr	r3, [r3, #28]
 80008de:	f003 0301 	and.w	r3, r3, #1
 80008e2:	2b00      	cmp	r3, #0
 80008e4:	d00b      	beq.n	80008fe <FLASH_SetErrorCode+0x6e>
 80008e6:	4b11      	ldr	r3, [pc, #68]	@ (800092c <FLASH_SetErrorCode+0x9c>)
 80008e8:	69db      	ldr	r3, [r3, #28]
 80008ea:	f043 0304 	orr.w	r3, r3, #4
 80008ee:	4a0f      	ldr	r2, [pc, #60]	@ (800092c <FLASH_SetErrorCode+0x9c>)
 80008f0:	61d3      	str	r3, [r2, #28]
 80008f2:	4b0d      	ldr	r3, [pc, #52]	@ (8000928 <FLASH_SetErrorCode+0x98>)
 80008f4:	69db      	ldr	r3, [r3, #28]
 80008f6:	4a0c      	ldr	r2, [pc, #48]	@ (8000928 <FLASH_SetErrorCode+0x98>)
 80008f8:	f023 0301 	bic.w	r3, r3, #1
 80008fc:	61d3      	str	r3, [r2, #28]
 80008fe:	687b      	ldr	r3, [r7, #4]
 8000900:	f240 1201 	movw	r2, #257	@ 0x101
 8000904:	4293      	cmp	r3, r2
 8000906:	d106      	bne.n	8000916 <FLASH_SetErrorCode+0x86>
 8000908:	4b07      	ldr	r3, [pc, #28]	@ (8000928 <FLASH_SetErrorCode+0x98>)
 800090a:	69db      	ldr	r3, [r3, #28]
 800090c:	4a06      	ldr	r2, [pc, #24]	@ (8000928 <FLASH_SetErrorCode+0x98>)
 800090e:	f023 0301 	bic.w	r3, r3, #1
 8000912:	61d3      	str	r3, [r2, #28]
 8000914:	e002      	b.n	800091c <FLASH_SetErrorCode+0x8c>
 8000916:	4a04      	ldr	r2, [pc, #16]	@ (8000928 <FLASH_SetErrorCode+0x98>)
 8000918:	687b      	ldr	r3, [r7, #4]
 800091a:	60d3      	str	r3, [r2, #12]
 800091c:	bf00      	nop
 800091e:	370c      	adds	r7, #12
 8000920:	46bd      	mov	sp, r7
 8000922:	bc80      	pop	{r7}
 8000924:	4770      	bx	lr
 8000926:	bf00      	nop
 8000928:	40022000 	.word	0x40022000
 800092c:	20000038 	.word	0x20000038

08000930 <HAL_FLASHEx_Erase>:
 8000930:	b580      	push	{r7, lr}
 8000932:	b084      	sub	sp, #16
 8000934:	af00      	add	r7, sp, #0
 8000936:	6078      	str	r0, [r7, #4]
 8000938:	6039      	str	r1, [r7, #0]
 800093a:	2301      	movs	r3, #1
 800093c:	73fb      	strb	r3, [r7, #15]
 800093e:	2300      	movs	r3, #0
 8000940:	60bb      	str	r3, [r7, #8]
 8000942:	4b2f      	ldr	r3, [pc, #188]	@ (8000a00 <HAL_FLASHEx_Erase+0xd0>)
 8000944:	7e1b      	ldrb	r3, [r3, #24]
 8000946:	2b01      	cmp	r3, #1
 8000948:	d101      	bne.n	800094e <HAL_FLASHEx_Erase+0x1e>
 800094a:	2302      	movs	r3, #2
 800094c:	e053      	b.n	80009f6 <HAL_FLASHEx_Erase+0xc6>
 800094e:	4b2c      	ldr	r3, [pc, #176]	@ (8000a00 <HAL_FLASHEx_Erase+0xd0>)
 8000950:	2201      	movs	r2, #1
 8000952:	761a      	strb	r2, [r3, #24]
 8000954:	687b      	ldr	r3, [r7, #4]
 8000956:	681b      	ldr	r3, [r3, #0]
 8000958:	2b02      	cmp	r3, #2
 800095a:	d116      	bne.n	800098a <HAL_FLASHEx_Erase+0x5a>
 800095c:	f24c 3050 	movw	r0, #50000	@ 0xc350
 8000960:	f7ff ff50 	bl	8000804 <FLASH_WaitForLastOperation>
 8000964:	4603      	mov	r3, r0
 8000966:	2b00      	cmp	r3, #0
 8000968:	d141      	bne.n	80009ee <HAL_FLASHEx_Erase+0xbe>
 800096a:	2001      	movs	r0, #1
 800096c:	f000 f84c 	bl	8000a08 <FLASH_MassErase>
 8000970:	f24c 3050 	movw	r0, #50000	@ 0xc350
 8000974:	f7ff ff46 	bl	8000804 <FLASH_WaitForLastOperation>
 8000978:	4603      	mov	r3, r0
 800097a:	73fb      	strb	r3, [r7, #15]
 800097c:	4b21      	ldr	r3, [pc, #132]	@ (8000a04 <HAL_FLASHEx_Erase+0xd4>)
 800097e:	691b      	ldr	r3, [r3, #16]
 8000980:	4a20      	ldr	r2, [pc, #128]	@ (8000a04 <HAL_FLASHEx_Erase+0xd4>)
 8000982:	f023 0304 	bic.w	r3, r3, #4
 8000986:	6113      	str	r3, [r2, #16]
 8000988:	e031      	b.n	80009ee <HAL_FLASHEx_Erase+0xbe>
 800098a:	f24c 3050 	movw	r0, #50000	@ 0xc350
 800098e:	f7ff ff39 	bl	8000804 <FLASH_WaitForLastOperation>
 8000992:	4603      	mov	r3, r0
 8000994:	2b00      	cmp	r3, #0
 8000996:	d12a      	bne.n	80009ee <HAL_FLASHEx_Erase+0xbe>
 8000998:	683b      	ldr	r3, [r7, #0]
 800099a:	f04f 32ff 	mov.w	r2, #4294967295
 800099e:	601a      	str	r2, [r3, #0]
 80009a0:	687b      	ldr	r3, [r7, #4]
 80009a2:	689b      	ldr	r3, [r3, #8]
 80009a4:	60bb      	str	r3, [r7, #8]
 80009a6:	e019      	b.n	80009dc <HAL_FLASHEx_Erase+0xac>
 80009a8:	68b8      	ldr	r0, [r7, #8]
 80009aa:	f000 f849 	bl	8000a40 <FLASH_PageErase>
 80009ae:	f24c 3050 	movw	r0, #50000	@ 0xc350
 80009b2:	f7ff ff27 	bl	8000804 <FLASH_WaitForLastOperation>
 80009b6:	4603      	mov	r3, r0
 80009b8:	73fb      	strb	r3, [r7, #15]
 80009ba:	4b12      	ldr	r3, [pc, #72]	@ (8000a04 <HAL_FLASHEx_Erase+0xd4>)
 80009bc:	691b      	ldr	r3, [r3, #16]
 80009be:	4a11      	ldr	r2, [pc, #68]	@ (8000a04 <HAL_FLASHEx_Erase+0xd4>)
 80009c0:	f023 0302 	bic.w	r3, r3, #2
 80009c4:	6113      	str	r3, [r2, #16]
 80009c6:	7bfb      	ldrb	r3, [r7, #15]
 80009c8:	2b00      	cmp	r3, #0
 80009ca:	d003      	beq.n	80009d4 <HAL_FLASHEx_Erase+0xa4>
 80009cc:	683b      	ldr	r3, [r7, #0]
 80009ce:	68ba      	ldr	r2, [r7, #8]
 80009d0:	601a      	str	r2, [r3, #0]
 80009d2:	e00c      	b.n	80009ee <HAL_FLASHEx_Erase+0xbe>
 80009d4:	68bb      	ldr	r3, [r7, #8]
 80009d6:	f503 6380 	add.w	r3, r3, #1024	@ 0x400
 80009da:	60bb      	str	r3, [r7, #8]
 80009dc:	687b      	ldr	r3, [r7, #4]
 80009de:	68db      	ldr	r3, [r3, #12]
 80009e0:	029a      	lsls	r2, r3, #10
 80009e2:	687b      	ldr	r3, [r7, #4]
 80009e4:	689b      	ldr	r3, [r3, #8]
 80009e6:	4413      	add	r3, r2
 80009e8:	68ba      	ldr	r2, [r7, #8]
 80009ea:	429a      	cmp	r2, r3
 80009ec:	d3dc      	bcc.n	80009a8 <HAL_FLASHEx_Erase+0x78>
 80009ee:	4b04      	ldr	r3, [pc, #16]	@ (8000a00 <HAL_FLASHEx_Erase+0xd0>)
 80009f0:	2200      	movs	r2, #0
 80009f2:	761a      	strb	r2, [r3, #24]
 80009f4:	7bfb      	ldrb	r3, [r7, #15]
 80009f6:	4618      	mov	r0, r3
 80009f8:	3710      	adds	r7, #16
 80009fa:	46bd      	mov	sp, r7
 80009fc:	bd80      	pop	{r7, pc}
 80009fe:	bf00      	nop
 8000a00:	20000038 	.word	0x20000038
 8000a04:	40022000 	.word	0x40022000

08000a08 <FLASH_MassErase>:
 8000a08:	b480      	push	{r7}
 8000a0a:	b083      	sub	sp, #12
 8000a0c:	af00      	add	r7, sp, #0
 8000a0e:	6078      	str	r0, [r7, #4]
 8000a10:	4b09      	ldr	r3, [pc, #36]	@ (8000a38 <FLASH_MassErase+0x30>)
 8000a12:	2200      	movs	r2, #0
 8000a14:	61da      	str	r2, [r3, #28]
 8000a16:	4b09      	ldr	r3, [pc, #36]	@ (8000a3c <FLASH_MassErase+0x34>)
 8000a18:	691b      	ldr	r3, [r3, #16]
 8000a1a:	4a08      	ldr	r2, [pc, #32]	@ (8000a3c <FLASH_MassErase+0x34>)
 8000a1c:	f043 0304 	orr.w	r3, r3, #4
 8000a20:	6113      	str	r3, [r2, #16]
 8000a22:	4b06      	ldr	r3, [pc, #24]	@ (8000a3c <FLASH_MassErase+0x34>)
 8000a24:	691b      	ldr	r3, [r3, #16]
 8000a26:	4a05      	ldr	r2, [pc, #20]	@ (8000a3c <FLASH_MassErase+0x34>)
 8000a28:	f043 0340 	orr.w	r3, r3, #64	@ 0x40
 8000a2c:	6113      	str	r3, [r2, #16]
 8000a2e:	bf00      	nop
 8000a30:	370c      	adds	r7, #12
 8000a32:	46bd      	mov	sp, r7
 8000a34:	bc80      	pop	{r7}
 8000a36:	4770      	bx	lr
 8000a38:	20000038 	.word	0x20000038
 8000a3c:	40022000 	.word	0x40022000

08000a40 <FLASH_PageErase>:
 8000a40:	b480      	push	{r7}
 8000a42:	b083      	sub	sp, #12
 8000a44:	af00      	add	r7, sp, #0
 8000a46:	6078      	str	r0, [r7, #4]
 8000a48:	4b0b      	ldr	r3, [pc, #44]	@ (8000a78 <FLASH_PageErase+0x38>)
 8000a4a:	2200      	movs	r2, #0
 8000a4c:	61da      	str	r2, [r3, #28]
 8000a4e:	4b0b      	ldr	r3, [pc, #44]	@ (8000a7c <FLASH_PageErase+0x3c>)
 8000a50:	691b      	ldr	r3, [r3, #16]
 8000a52:	4a0a      	ldr	r2, [pc, #40]	@ (8000a7c <FLASH_PageErase+0x3c>)
 8000a54:	f043 0302 	orr.w	r3, r3, #2
 8000a58:	6113      	str	r3, [r2, #16]
 8000a5a:	4a08      	ldr	r2, [pc, #32]	@ (8000a7c <FLASH_PageErase+0x3c>)
 8000a5c:	687b      	ldr	r3, [r7, #4]
 8000a5e:	6153      	str	r3, [r2, #20]
 8000a60:	4b06      	ldr	r3, [pc, #24]	@ (8000a7c <FLASH_PageErase+0x3c>)
 8000a62:	691b      	ldr	r3, [r3, #16]
 8000a64:	4a05      	ldr	r2, [pc, #20]	@ (8000a7c <FLASH_PageErase+0x3c>)
 8000a66:	f043 0340 	orr.w	r3, r3, #64	@ 0x40
 8000a6a:	6113      	str	r3, [r2, #16]
 8000a6c:	bf00      	nop
 8000a6e:	370c      	adds	r7, #12
 8000a70:	46bd      	mov	sp, r7
 8000a72:	bc80      	pop	{r7}
 8000a74:	4770      	bx	lr
 8000a76:	bf00      	nop
 8000a78:	20000038 	.word	0x20000038
 8000a7c:	40022000 	.word	0x40022000

08000a80 <HAL_RCC_OscConfig>:
 8000a80:	b580      	push	{r7, lr}
 8000a82:	b086      	sub	sp, #24
 8000a84:	af00      	add	r7, sp, #0
 8000a86:	6078      	str	r0, [r7, #4]
 8000a88:	687b      	ldr	r3, [r7, #4]
 8000a8a:	2b00      	cmp	r3, #0
 8000a8c:	d101      	bne.n	8000a92 <HAL_RCC_OscConfig+0x12>
 8000a8e:	2301      	movs	r3, #1
 8000a90:	e272      	b.n	8000f78 <HAL_RCC_OscConfig+0x4f8>
 8000a92:	687b      	ldr	r3, [r7, #4]
 8000a94:	681b      	ldr	r3, [r3, #0]
 8000a96:	f003 0301 	and.w	r3, r3, #1
 8000a9a:	2b00      	cmp	r3, #0
 8000a9c:	f000 8087 	beq.w	8000bae <HAL_RCC_OscConfig+0x12e>
 8000aa0:	4b92      	ldr	r3, [pc, #584]	@ (8000cec <HAL_RCC_OscConfig+0x26c>)
 8000aa2:	685b      	ldr	r3, [r3, #4]
 8000aa4:	f003 030c 	and.w	r3, r3, #12
 8000aa8:	2b04      	cmp	r3, #4
 8000aaa:	d00c      	beq.n	8000ac6 <HAL_RCC_OscConfig+0x46>
 8000aac:	4b8f      	ldr	r3, [pc, #572]	@ (8000cec <HAL_RCC_OscConfig+0x26c>)
 8000aae:	685b      	ldr	r3, [r3, #4]
 8000ab0:	f003 030c 	and.w	r3, r3, #12
 8000ab4:	2b08      	cmp	r3, #8
 8000ab6:	d112      	bne.n	8000ade <HAL_RCC_OscConfig+0x5e>
 8000ab8:	4b8c      	ldr	r3, [pc, #560]	@ (8000cec <HAL_RCC_OscConfig+0x26c>)
 8000aba:	685b      	ldr	r3, [r3, #4]
 8000abc:	f403 3380 	and.w	r3, r3, #65536	@ 0x10000
 8000ac0:	f5b3 3f80 	cmp.w	r3, #65536	@ 0x10000
 8000ac4:	d10b      	bne.n	8000ade <HAL_RCC_OscConfig+0x5e>
 8000ac6:	4b89      	ldr	r3, [pc, #548]	@ (8000cec <HAL_RCC_OscConfig+0x26c>)
 8000ac8:	681b      	ldr	r3, [r3, #0]
 8000aca:	f403 3300 	and.w	r3, r3, #131072	@ 0x20000
 8000ace:	2b00      	cmp	r3, #0
 8000ad0:	d06c      	beq.n	8000bac <HAL_RCC_OscConfig+0x12c>
 8000ad2:	687b      	ldr	r3, [r7, #4]
 8000ad4:	685b      	ldr	r3, [r3, #4]
 8000ad6:	2b00      	cmp	r3, #0
 8000ad8:	d168      	bne.n	8000bac <HAL_RCC_OscConfig+0x12c>
 8000ada:	2301      	movs	r3, #1
 8000adc:	e24c      	b.n	8000f78 <HAL_RCC_OscConfig+0x4f8>
 8000ade:	687b      	ldr	r3, [r7, #4]
 8000ae0:	685b      	ldr	r3, [r3, #4]
 8000ae2:	f5b3 3f80 	cmp.w	r3, #65536	@ 0x10000
 8000ae6:	d106      	bne.n	8000af6 <HAL_RCC_OscConfig+0x76>
 8000ae8:	4b80      	ldr	r3, [pc, #512]	@ (8000cec <HAL_RCC_OscConfig+0x26c>)
 8000aea:	681b      	ldr	r3, [r3, #0]
 8000aec:	4a7f      	ldr	r2, [pc, #508]	@ (8000cec <HAL_RCC_OscConfig+0x26c>)
 8000aee:	f443 3380 	orr.w	r3, r3, #65536	@ 0x10000
 8000af2:	6013      	str	r3, [r2, #0]
 8000af4:	e02e      	b.n	8000b54 <HAL_RCC_OscConfig+0xd4>
 8000af6:	687b      	ldr	r3, [r7, #4]
 8000af8:	685b      	ldr	r3, [r3, #4]
 8000afa:	2b00      	cmp	r3, #0
 8000afc:	d10c      	bne.n	8000b18 <HAL_RCC_OscConfig+0x98>
 8000afe:	4b7b      	ldr	r3, [pc, #492]	@ (8000cec <HAL_RCC_OscConfig+0x26c>)
 8000b00:	681b      	ldr	r3, [r3, #0]
 8000b02:	4a7a      	ldr	r2, [pc, #488]	@ (8000cec <HAL_RCC_OscConfig+0x26c>)
 8000b04:	f423 3380 	bic.w	r3, r3, #65536	@ 0x10000
 8000b08:	6013      	str	r3, [r2, #0]
 8000b0a:	4b78      	ldr	r3, [pc, #480]	@ (8000cec <HAL_RCC_OscConfig+0x26c>)
 8000b0c:	681b      	ldr	r3, [r3, #0]
 8000b0e:	4a77      	ldr	r2, [pc, #476]	@ (8000cec <HAL_RCC_OscConfig+0x26c>)
 8000b10:	f423 2380 	bic.w	r3, r3, #262144	@ 0x40000
 8000b14:	6013      	str	r3, [r2, #0]
 8000b16:	e01d      	b.n	8000b54 <HAL_RCC_OscConfig+0xd4>
 8000b18:	687b      	ldr	r3, [r7, #4]
 8000b1a:	685b      	ldr	r3, [r3, #4]
 8000b1c:	f5b3 2fa0 	cmp.w	r3, #327680	@ 0x50000
 8000b20:	d10c      	bne.n	8000b3c <HAL_RCC_OscConfig+0xbc>
 8000b22:	4b72      	ldr	r3, [pc, #456]	@ (8000cec <HAL_RCC_OscConfig+0x26c>)
 8000b24:	681b      	ldr	r3, [r3, #0]
 8000b26:	4a71      	ldr	r2, [pc, #452]	@ (8000cec <HAL_RCC_OscConfig+0x26c>)
 8000b28:	f443 2380 	orr.w	r3, r3, #262144	@ 0x40000
 8000b2c:	6013      	str	r3, [r2, #0]
 8000b2e:	4b6f      	ldr	r3, [pc, #444]	@ (8000cec <HAL_RCC_OscConfig+0x26c>)
 8000b30:	681b      	ldr	r3, [r3, #0]
 8000b32:	4a6e      	ldr	r2, [pc, #440]	@ (8000cec <HAL_RCC_OscConfig+0x26c>)
 8000b34:	f443 3380 	orr.w	r3, r3, #65536	@ 0x10000
 8000b38:	6013      	str	r3, [r2, #0]
 8000b3a:	e00b      	b.n	8000b54 <HAL_RCC_OscConfig+0xd4>
 8000b3c:	4b6b      	ldr	r3, [pc, #428]	@ (8000cec <HAL_RCC_OscConfig+0x26c>)
 8000b3e:	681b      	ldr	r3, [r3, #0]
 8000b40:	4a6a      	ldr	r2, [pc, #424]	@ (8000cec <HAL_RCC_OscConfig+0x26c>)
 8000b42:	f423 3380 	bic.w	r3, r3, #65536	@ 0x10000
 8000b46:	6013      	str	r3, [r2, #0]
 8000b48:	4b68      	ldr	r3, [pc, #416]	@ (8000cec <HAL_RCC_OscConfig+0x26c>)
 8000b4a:	681b      	ldr	r3, [r3, #0]
 8000b4c:	4a67      	ldr	r2, [pc, #412]	@ (8000cec <HAL_RCC_OscConfig+0x26c>)
 8000b4e:	f423 2380 	bic.w	r3, r3, #262144	@ 0x40000
 8000b52:	6013      	str	r3, [r2, #0]
 8000b54:	687b      	ldr	r3, [r7, #4]
 8000b56:	685b      	ldr	r3, [r3, #4]
 8000b58:	2b00      	cmp	r3, #0
 8000b5a:	d013      	beq.n	8000b84 <HAL_RCC_OscConfig+0x104>
 8000b5c:	f7ff fca2 	bl	80004a4 <HAL_GetTick>
 8000b60:	6138      	str	r0, [r7, #16]
 8000b62:	e008      	b.n	8000b76 <HAL_RCC_OscConfig+0xf6>
 8000b64:	f7ff fc9e 	bl	80004a4 <HAL_GetTick>
 8000b68:	4602      	mov	r2, r0
 8000b6a:	693b      	ldr	r3, [r7, #16]
 8000b6c:	1ad3      	subs	r3, r2, r3
 8000b6e:	2b64      	cmp	r3, #100	@ 0x64
 8000b70:	d901      	bls.n	8000b76 <HAL_RCC_OscConfig+0xf6>
 8000b72:	2303      	movs	r3, #3
 8000b74:	e200      	b.n	8000f78 <HAL_RCC_OscConfig+0x4f8>
 8000b76:	4b5d      	ldr	r3, [pc, #372]	@ (8000cec <HAL_RCC_OscConfig+0x26c>)
 8000b78:	681b      	ldr	r3, [r3, #0]
 8000b7a:	f403 3300 	and.w	r3, r3, #131072	@ 0x20000
 8000b7e:	2b00      	cmp	r3, #0
 8000b80:	d0f0      	beq.n	8000b64 <HAL_RCC_OscConfig+0xe4>
 8000b82:	e014      	b.n	8000bae <HAL_RCC_OscConfig+0x12e>
 8000b84:	f7ff fc8e 	bl	80004a4 <HAL_GetTick>
 8000b88:	6138      	str	r0, [r7, #16]
 8000b8a:	e008      	b.n	8000b9e <HAL_RCC_OscConfig+0x11e>
 8000b8c:	f7ff fc8a 	bl	80004a4 <HAL_GetTick>
 8000b90:	4602      	mov	r2, r0
 8000b92:	693b      	ldr	r3, [r7, #16]
 8000b94:	1ad3      	subs	r3, r2, r3
 8000b96:	2b64      	cmp	r3, #100	@ 0x64
 8000b98:	d901      	bls.n	8000b9e <HAL_RCC_OscConfig+0x11e>
 8000b9a:	2303      	movs	r3, #3
 8000b9c:	e1ec      	b.n	8000f78 <HAL_RCC_OscConfig+0x4f8>
 8000b9e:	4b53      	ldr	r3, [pc, #332]	@ (8000cec <HAL_RCC_OscConfig+0x26c>)
 8000ba0:	681b      	ldr	r3, [r3, #0]
 8000ba2:	f403 3300 	and.w	r3, r3, #131072	@ 0x20000
 8000ba6:	2b00      	cmp	r3, #0
 8000ba8:	d1f0      	bne.n	8000b8c <HAL_RCC_OscConfig+0x10c>
 8000baa:	e000      	b.n	8000bae <HAL_RCC_OscConfig+0x12e>
 8000bac:	bf00      	nop
 8000bae:	687b      	ldr	r3, [r7, #4]
 8000bb0:	681b      	ldr	r3, [r3, #0]
 8000bb2:	f003 0302 	and.w	r3, r3, #2
 8000bb6:	2b00      	cmp	r3, #0
 8000bb8:	d063      	beq.n	8000c82 <HAL_RCC_OscConfig+0x202>
 8000bba:	4b4c      	ldr	r3, [pc, #304]	@ (8000cec <HAL_RCC_OscConfig+0x26c>)
 8000bbc:	685b      	ldr	r3, [r3, #4]
 8000bbe:	f003 030c 	and.w	r3, r3, #12
 8000bc2:	2b00      	cmp	r3, #0
 8000bc4:	d00b      	beq.n	8000bde <HAL_RCC_OscConfig+0x15e>
 8000bc6:	4b49      	ldr	r3, [pc, #292]	@ (8000cec <HAL_RCC_OscConfig+0x26c>)
 8000bc8:	685b      	ldr	r3, [r3, #4]
 8000bca:	f003 030c 	and.w	r3, r3, #12
 8000bce:	2b08      	cmp	r3, #8
 8000bd0:	d11c      	bne.n	8000c0c <HAL_RCC_OscConfig+0x18c>
 8000bd2:	4b46      	ldr	r3, [pc, #280]	@ (8000cec <HAL_RCC_OscConfig+0x26c>)
 8000bd4:	685b      	ldr	r3, [r3, #4]
 8000bd6:	f403 3380 	and.w	r3, r3, #65536	@ 0x10000
 8000bda:	2b00      	cmp	r3, #0
 8000bdc:	d116      	bne.n	8000c0c <HAL_RCC_OscConfig+0x18c>
 8000bde:	4b43      	ldr	r3, [pc, #268]	@ (8000cec <HAL_RCC_OscConfig+0x26c>)
 8000be0:	681b      	ldr	r3, [r3, #0]
 8000be2:	f003 0302 	and.w	r3, r3, #2
 8000be6:	2b00      	cmp	r3, #0
 8000be8:	d005      	beq.n	8000bf6 <HAL_RCC_OscConfig+0x176>
 8000bea:	687b      	ldr	r3, [r7, #4]
 8000bec:	691b      	ldr	r3, [r3, #16]
 8000bee:	2b01      	cmp	r3, #1
 8000bf0:	d001      	beq.n	8000bf6 <HAL_RCC_OscConfig+0x176>
 8000bf2:	2301      	movs	r3, #1
 8000bf4:	e1c0      	b.n	8000f78 <HAL_RCC_OscConfig+0x4f8>
 8000bf6:	4b3d      	ldr	r3, [pc, #244]	@ (8000cec <HAL_RCC_OscConfig+0x26c>)
 8000bf8:	681b      	ldr	r3, [r3, #0]
 8000bfa:	f023 02f8 	bic.w	r2, r3, #248	@ 0xf8
 8000bfe:	687b      	ldr	r3, [r7, #4]
 8000c00:	695b      	ldr	r3, [r3, #20]
 8000c02:	00db      	lsls	r3, r3, #3
 8000c04:	4939      	ldr	r1, [pc, #228]	@ (8000cec <HAL_RCC_OscConfig+0x26c>)
 8000c06:	4313      	orrs	r3, r2
 8000c08:	600b      	str	r3, [r1, #0]
 8000c0a:	e03a      	b.n	8000c82 <HAL_RCC_OscConfig+0x202>
 8000c0c:	687b      	ldr	r3, [r7, #4]
 8000c0e:	691b      	ldr	r3, [r3, #16]
 8000c10:	2b00      	cmp	r3, #0
 8000c12:	d020      	beq.n	8000c56 <HAL_RCC_OscConfig+0x1d6>
 8000c14:	4b36      	ldr	r3, [pc, #216]	@ (8000cf0 <HAL_RCC_OscConfig+0x270>)
 8000c16:	2201      	movs	r2, #1
 8000c18:	601a      	str	r2, [r3, #0]
 8000c1a:	f7ff fc43 	bl	80004a4 <HAL_GetTick>
 8000c1e:	6138      	str	r0, [r7, #16]
 8000c20:	e008      	b.n	8000c34 <HAL_RCC_OscConfig+0x1b4>
 8000c22:	f7ff fc3f 	bl	80004a4 <HAL_GetTick>
 8000c26:	4602      	mov	r2, r0
 8000c28:	693b      	ldr	r3, [r7, #16]
 8000c2a:	1ad3      	subs	r3, r2, r3
 8000c2c:	2b02      	cmp	r3, #2
 8000c2e:	d901      	bls.n	8000c34 <HAL_RCC_OscConfig+0x1b4>
 8000c30:	2303      	movs	r3, #3
 8000c32:	e1a1      	b.n	8000f78 <HAL_RCC_OscConfig+0x4f8>
 8000c34:	4b2d      	ldr	r3, [pc, #180]	@ (8000cec <HAL_RCC_OscConfig+0x26c>)
 8000c36:	681b      	ldr	r3, [r3, #0]
 8000c38:	f003 0302 	and.w	r3, r3, #2
 8000c3c:	2b00      	cmp	r3, #0
 8000c3e:	d0f0      	beq.n	8000c22 <HAL_RCC_OscConfig+0x1a2>
 8000c40:	4b2a      	ldr	r3, [pc, #168]	@ (8000cec <HAL_RCC_OscConfig+0x26c>)
 8000c42:	681b      	ldr	r3, [r3, #0]
 8000c44:	f023 02f8 	bic.w	r2, r3, #248	@ 0xf8
 8000c48:	687b      	ldr	r3, [r7, #4]
 8000c4a:	695b      	ldr	r3, [r3, #20]
 8000c4c:	00db      	lsls	r3, r3, #3
 8000c4e:	4927      	ldr	r1, [pc, #156]	@ (8000cec <HAL_RCC_OscConfig+0x26c>)
 8000c50:	4313      	orrs	r3, r2
 8000c52:	600b      	str	r3, [r1, #0]
 8000c54:	e015      	b.n	8000c82 <HAL_RCC_OscConfig+0x202>
 8000c56:	4b26      	ldr	r3, [pc, #152]	@ (8000cf0 <HAL_RCC_OscConfig+0x270>)
 8000c58:	2200      	movs	r2, #0
 8000c5a:	601a      	str	r2, [r3, #0]
 8000c5c:	f7ff fc22 	bl	80004a4 <HAL_GetTick>
 8000c60:	6138      	str	r0, [r7, #16]
 8000c62:	e008      	b.n	8000c76 <HAL_RCC_OscConfig+0x1f6>
 8000c64:	f7ff fc1e 	bl	80004a4 <HAL_GetTick>
 8000c68:	4602      	mov	r2, r0
 8000c6a:	693b      	ldr	r3, [r7, #16]
 8000c6c:	1ad3      	subs	r3, r2, r3
 8000c6e:	2b02      	cmp	r3, #2
 8000c70:	d901      	bls.n	8000c76 <HAL_RCC_OscConfig+0x1f6>
 8000c72:	2303      	movs	r3, #3
 8000c74:	e180      	b.n	8000f78 <HAL_RCC_OscConfig+0x4f8>
 8000c76:	4b1d      	ldr	r3, [pc, #116]	@ (8000cec <HAL_RCC_OscConfig+0x26c>)
 8000c78:	681b      	ldr	r3, [r3, #0]
 8000c7a:	f003 0302 	and.w	r3, r3, #2
 8000c7e:	2b00      	cmp	r3, #0
 8000c80:	d1f0      	bne.n	8000c64 <HAL_RCC_OscConfig+0x1e4>
 8000c82:	687b      	ldr	r3, [r7, #4]
 8000c84:	681b      	ldr	r3, [r3, #0]
 8000c86:	f003 0308 	and.w	r3, r3, #8
 8000c8a:	2b00      	cmp	r3, #0
 8000c8c:	d03a      	beq.n	8000d04 <HAL_RCC_OscConfig+0x284>
 8000c8e:	687b      	ldr	r3, [r7, #4]
 8000c90:	699b      	ldr	r3, [r3, #24]
 8000c92:	2b00      	cmp	r3, #0
 8000c94:	d019      	beq.n	8000cca <HAL_RCC_OscConfig+0x24a>
 8000c96:	4b17      	ldr	r3, [pc, #92]	@ (8000cf4 <HAL_RCC_OscConfig+0x274>)
 8000c98:	2201      	movs	r2, #1
 8000c9a:	601a      	str	r2, [r3, #0]
 8000c9c:	f7ff fc02 	bl	80004a4 <HAL_GetTick>
 8000ca0:	6138      	str	r0, [r7, #16]
 8000ca2:	e008      	b.n	8000cb6 <HAL_RCC_OscConfig+0x236>
 8000ca4:	f7ff fbfe 	bl	80004a4 <HAL_GetTick>
 8000ca8:	4602      	mov	r2, r0
 8000caa:	693b      	ldr	r3, [r7, #16]
 8000cac:	1ad3      	subs	r3, r2, r3
 8000cae:	2b02      	cmp	r3, #2
 8000cb0:	d901      	bls.n	8000cb6 <HAL_RCC_OscConfig+0x236>
 8000cb2:	2303      	movs	r3, #3
 8000cb4:	e160      	b.n	8000f78 <HAL_RCC_OscConfig+0x4f8>
 8000cb6:	4b0d      	ldr	r3, [pc, #52]	@ (8000cec <HAL_RCC_OscConfig+0x26c>)
 8000cb8:	6a5b      	ldr	r3, [r3, #36]	@ 0x24
 8000cba:	f003 0302 	and.w	r3, r3, #2
 8000cbe:	2b00      	cmp	r3, #0
 8000cc0:	d0f0      	beq.n	8000ca4 <HAL_RCC_OscConfig+0x224>
 8000cc2:	2001      	movs	r0, #1
 8000cc4:	f000 fa9c 	bl	8001200 <RCC_Delay>
 8000cc8:	e01c      	b.n	8000d04 <HAL_RCC_OscConfig+0x284>
 8000cca:	4b0a      	ldr	r3, [pc, #40]	@ (8000cf4 <HAL_RCC_OscConfig+0x274>)
 8000ccc:	2200      	movs	r2, #0
 8000cce:	601a      	str	r2, [r3, #0]
 8000cd0:	f7ff fbe8 	bl	80004a4 <HAL_GetTick>
 8000cd4:	6138      	str	r0, [r7, #16]
 8000cd6:	e00f      	b.n	8000cf8 <HAL_RCC_OscConfig+0x278>
 8000cd8:	f7ff fbe4 	bl	80004a4 <HAL_GetTick>
 8000cdc:	4602      	mov	r2, r0
 8000cde:	693b      	ldr	r3, [r7, #16]
 8000ce0:	1ad3      	subs	r3, r2, r3
 8000ce2:	2b02      	cmp	r3, #2
 8000ce4:	d908      	bls.n	8000cf8 <HAL_RCC_OscConfig+0x278>
 8000ce6:	2303      	movs	r3, #3
 8000ce8:	e146      	b.n	8000f78 <HAL_RCC_OscConfig+0x4f8>
 8000cea:	bf00      	nop
 8000cec:	40021000 	.word	0x40021000
 8000cf0:	42420000 	.word	0x42420000
 8000cf4:	42420480 	.word	0x42420480
 8000cf8:	4b92      	ldr	r3, [pc, #584]	@ (8000f44 <HAL_RCC_OscConfig+0x4c4>)
 8000cfa:	6a5b      	ldr	r3, [r3, #36]	@ 0x24
 8000cfc:	f003 0302 	and.w	r3, r3, #2
 8000d00:	2b00      	cmp	r3, #0
 8000d02:	d1e9      	bne.n	8000cd8 <HAL_RCC_OscConfig+0x258>
 8000d04:	687b      	ldr	r3, [r7, #4]
 8000d06:	681b      	ldr	r3, [r3, #0]
 8000d08:	f003 0304 	and.w	r3, r3, #4
 8000d0c:	2b00      	cmp	r3, #0
 8000d0e:	f000 80a6 	beq.w	8000e5e <HAL_RCC_OscConfig+0x3de>
 8000d12:	2300      	movs	r3, #0
 8000d14:	75fb      	strb	r3, [r7, #23]
 8000d16:	4b8b      	ldr	r3, [pc, #556]	@ (8000f44 <HAL_RCC_OscConfig+0x4c4>)
 8000d18:	69db      	ldr	r3, [r3, #28]
 8000d1a:	f003 5380 	and.w	r3, r3, #268435456	@ 0x10000000
 8000d1e:	2b00      	cmp	r3, #0
 8000d20:	d10d      	bne.n	8000d3e <HAL_RCC_OscConfig+0x2be>
 8000d22:	4b88      	ldr	r3, [pc, #544]	@ (8000f44 <HAL_RCC_OscConfig+0x4c4>)
 8000d24:	69db      	ldr	r3, [r3, #28]
 8000d26:	4a87      	ldr	r2, [pc, #540]	@ (8000f44 <HAL_RCC_OscConfig+0x4c4>)
 8000d28:	f043 5380 	orr.w	r3, r3, #268435456	@ 0x10000000
 8000d2c:	61d3      	str	r3, [r2, #28]
 8000d2e:	4b85      	ldr	r3, [pc, #532]	@ (8000f44 <HAL_RCC_OscConfig+0x4c4>)
 8000d30:	69db      	ldr	r3, [r3, #28]
 8000d32:	f003 5380 	and.w	r3, r3, #268435456	@ 0x10000000
 8000d36:	60bb      	str	r3, [r7, #8]
 8000d38:	68bb      	ldr	r3, [r7, #8]
 8000d3a:	2301      	movs	r3, #1
 8000d3c:	75fb      	strb	r3, [r7, #23]
 8000d3e:	4b82      	ldr	r3, [pc, #520]	@ (8000f48 <HAL_RCC_OscConfig+0x4c8>)
 8000d40:	681b      	ldr	r3, [r3, #0]
 8000d42:	f403 7380 	and.w	r3, r3, #256	@ 0x100
 8000d46:	2b00      	cmp	r3, #0
 8000d48:	d118      	bne.n	8000d7c <HAL_RCC_OscConfig+0x2fc>
 8000d4a:	4b7f      	ldr	r3, [pc, #508]	@ (8000f48 <HAL_RCC_OscConfig+0x4c8>)
 8000d4c:	681b      	ldr	r3, [r3, #0]
 8000d4e:	4a7e      	ldr	r2, [pc, #504]	@ (8000f48 <HAL_RCC_OscConfig+0x4c8>)
 8000d50:	f443 7380 	orr.w	r3, r3, #256	@ 0x100
 8000d54:	6013      	str	r3, [r2, #0]
 8000d56:	f7ff fba5 	bl	80004a4 <HAL_GetTick>
 8000d5a:	6138      	str	r0, [r7, #16]
 8000d5c:	e008      	b.n	8000d70 <HAL_RCC_OscConfig+0x2f0>
 8000d5e:	f7ff fba1 	bl	80004a4 <HAL_GetTick>
 8000d62:	4602      	mov	r2, r0
 8000d64:	693b      	ldr	r3, [r7, #16]
 8000d66:	1ad3      	subs	r3, r2, r3
 8000d68:	2b64      	cmp	r3, #100	@ 0x64
 8000d6a:	d901      	bls.n	8000d70 <HAL_RCC_OscConfig+0x2f0>
 8000d6c:	2303      	movs	r3, #3
 8000d6e:	e103      	b.n	8000f78 <HAL_RCC_OscConfig+0x4f8>
 8000d70:	4b75      	ldr	r3, [pc, #468]	@ (8000f48 <HAL_RCC_OscConfig+0x4c8>)
 8000d72:	681b      	ldr	r3, [r3, #0]
 8000d74:	f403 7380 	and.w	r3, r3, #256	@ 0x100
 8000d78:	2b00      	cmp	r3, #0
 8000d7a:	d0f0      	beq.n	8000d5e <HAL_RCC_OscConfig+0x2de>
 8000d7c:	687b      	ldr	r3, [r7, #4]
 8000d7e:	68db      	ldr	r3, [r3, #12]
 8000d80:	2b01      	cmp	r3, #1
 8000d82:	d106      	bne.n	8000d92 <HAL_RCC_OscConfig+0x312>
 8000d84:	4b6f      	ldr	r3, [pc, #444]	@ (8000f44 <HAL_RCC_OscConfig+0x4c4>)
 8000d86:	6a1b      	ldr	r3, [r3, #32]
 8000d88:	4a6e      	ldr	r2, [pc, #440]	@ (8000f44 <HAL_RCC_OscConfig+0x4c4>)
 8000d8a:	f043 0301 	orr.w	r3, r3, #1
 8000d8e:	6213      	str	r3, [r2, #32]
 8000d90:	e02d      	b.n	8000dee <HAL_RCC_OscConfig+0x36e>
 8000d92:	687b      	ldr	r3, [r7, #4]
 8000d94:	68db      	ldr	r3, [r3, #12]
 8000d96:	2b00      	cmp	r3, #0
 8000d98:	d10c      	bne.n	8000db4 <HAL_RCC_OscConfig+0x334>
 8000d9a:	4b6a      	ldr	r3, [pc, #424]	@ (8000f44 <HAL_RCC_OscConfig+0x4c4>)
 8000d9c:	6a1b      	ldr	r3, [r3, #32]
 8000d9e:	4a69      	ldr	r2, [pc, #420]	@ (8000f44 <HAL_RCC_OscConfig+0x4c4>)
 8000da0:	f023 0301 	bic.w	r3, r3, #1
 8000da4:	6213      	str	r3, [r2, #32]
 8000da6:	4b67      	ldr	r3, [pc, #412]	@ (8000f44 <HAL_RCC_OscConfig+0x4c4>)
 8000da8:	6a1b      	ldr	r3, [r3, #32]
 8000daa:	4a66      	ldr	r2, [pc, #408]	@ (8000f44 <HAL_RCC_OscConfig+0x4c4>)
 8000dac:	f023 0304 	bic.w	r3, r3, #4
 8000db0:	6213      	str	r3, [r2, #32]
 8000db2:	e01c      	b.n	8000dee <HAL_RCC_OscConfig+0x36e>
 8000db4:	687b      	ldr	r3, [r7, #4]
 8000db6:	68db      	ldr	r3, [r3, #12]
 8000db8:	2b05      	cmp	r3, #5
 8000dba:	d10c      	bne.n	8000dd6 <HAL_RCC_OscConfig+0x356>
 8000dbc:	4b61      	ldr	r3, [pc, #388]	@ (8000f44 <HAL_RCC_OscConfig+0x4c4>)
 8000dbe:	6a1b      	ldr	r3, [r3, #32]
 8000dc0:	4a60      	ldr	r2, [pc, #384]	@ (8000f44 <HAL_RCC_OscConfig+0x4c4>)
 8000dc2:	f043 0304 	orr.w	r3, r3, #4
 8000dc6:	6213      	str	r3, [r2, #32]
 8000dc8:	4b5e      	ldr	r3, [pc, #376]	@ (8000f44 <HAL_RCC_OscConfig+0x4c4>)
 8000dca:	6a1b      	ldr	r3, [r3, #32]
 8000dcc:	4a5d      	ldr	r2, [pc, #372]	@ (8000f44 <HAL_RCC_OscConfig+0x4c4>)
 8000dce:	f043 0301 	orr.w	r3, r3, #1
 8000dd2:	6213      	str	r3, [r2, #32]
 8000dd4:	e00b      	b.n	8000dee <HAL_RCC_OscConfig+0x36e>
 8000dd6:	4b5b      	ldr	r3, [pc, #364]	@ (8000f44 <HAL_RCC_OscConfig+0x4c4>)
 8000dd8:	6a1b      	ldr	r3, [r3, #32]
 8000dda:	4a5a      	ldr	r2, [pc, #360]	@ (8000f44 <HAL_RCC_OscConfig+0x4c4>)
 8000ddc:	f023 0301 	bic.w	r3, r3, #1
 8000de0:	6213      	str	r3, [r2, #32]
 8000de2:	4b58      	ldr	r3, [pc, #352]	@ (8000f44 <HAL_RCC_OscConfig+0x4c4>)
 8000de4:	6a1b      	ldr	r3, [r3, #32]
 8000de6:	4a57      	ldr	r2, [pc, #348]	@ (8000f44 <HAL_RCC_OscConfig+0x4c4>)
 8000de8:	f023 0304 	bic.w	r3, r3, #4
 8000dec:	6213      	str	r3, [r2, #32]
 8000dee:	687b      	ldr	r3, [r7, #4]
 8000df0:	68db      	ldr	r3, [r3, #12]
 8000df2:	2b00      	cmp	r3, #0
 8000df4:	d015      	beq.n	8000e22 <HAL_RCC_OscConfig+0x3a2>
 8000df6:	f7ff fb55 	bl	80004a4 <HAL_GetTick>
 8000dfa:	6138      	str	r0, [r7, #16]
 8000dfc:	e00a      	b.n	8000e14 <HAL_RCC_OscConfig+0x394>
 8000dfe:	f7ff fb51 	bl	80004a4 <HAL_GetTick>
 8000e02:	4602      	mov	r2, r0
 8000e04:	693b      	ldr	r3, [r7, #16]
 8000e06:	1ad3      	subs	r3, r2, r3
 8000e08:	f241 3288 	movw	r2, #5000	@ 0x1388
 8000e0c:	4293      	cmp	r3, r2
 8000e0e:	d901      	bls.n	8000e14 <HAL_RCC_OscConfig+0x394>
 8000e10:	2303      	movs	r3, #3
 8000e12:	e0b1      	b.n	8000f78 <HAL_RCC_OscConfig+0x4f8>
 8000e14:	4b4b      	ldr	r3, [pc, #300]	@ (8000f44 <HAL_RCC_OscConfig+0x4c4>)
 8000e16:	6a1b      	ldr	r3, [r3, #32]
 8000e18:	f003 0302 	and.w	r3, r3, #2
 8000e1c:	2b00      	cmp	r3, #0
 8000e1e:	d0ee      	beq.n	8000dfe <HAL_RCC_OscConfig+0x37e>
 8000e20:	e014      	b.n	8000e4c <HAL_RCC_OscConfig+0x3cc>
 8000e22:	f7ff fb3f 	bl	80004a4 <HAL_GetTick>
 8000e26:	6138      	str	r0, [r7, #16]
 8000e28:	e00a      	b.n	8000e40 <HAL_RCC_OscConfig+0x3c0>
 8000e2a:	f7ff fb3b 	bl	80004a4 <HAL_GetTick>
 8000e2e:	4602      	mov	r2, r0
 8000e30:	693b      	ldr	r3, [r7, #16]
 8000e32:	1ad3      	subs	r3, r2, r3
 8000e34:	f241 3288 	movw	r2, #5000	@ 0x1388
 8000e38:	4293      	cmp	r3, r2
 8000e3a:	d901      	bls.n	8000e40 <HAL_RCC_OscConfig+0x3c0>
 8000e3c:	2303      	movs	r3, #3
 8000e3e:	e09b      	b.n	8000f78 <HAL_RCC_OscConfig+0x4f8>
 8000e40:	4b40      	ldr	r3, [pc, #256]	@ (8000f44 <HAL_RCC_OscConfig+0x4c4>)
 8000e42:	6a1b      	ldr	r3, [r3, #32]
 8000e44:	f003 0302 	and.w	r3, r3, #2
 8000e48:	2b00      	cmp	r3, #0
 8000e4a:	d1ee      	bne.n	8000e2a <HAL_RCC_OscConfig+0x3aa>
 8000e4c:	7dfb      	ldrb	r3, [r7, #23]
 8000e4e:	2b01      	cmp	r3, #1
 8000e50:	d105      	bne.n	8000e5e <HAL_RCC_OscConfig+0x3de>
 8000e52:	4b3c      	ldr	r3, [pc, #240]	@ (8000f44 <HAL_RCC_OscConfig+0x4c4>)
 8000e54:	69db      	ldr	r3, [r3, #28]
 8000e56:	4a3b      	ldr	r2, [pc, #236]	@ (8000f44 <HAL_RCC_OscConfig+0x4c4>)
 8000e58:	f023 5380 	bic.w	r3, r3, #268435456	@ 0x10000000
 8000e5c:	61d3      	str	r3, [r2, #28]
 8000e5e:	687b      	ldr	r3, [r7, #4]
 8000e60:	69db      	ldr	r3, [r3, #28]
 8000e62:	2b00      	cmp	r3, #0
 8000e64:	f000 8087 	beq.w	8000f76 <HAL_RCC_OscConfig+0x4f6>
 8000e68:	4b36      	ldr	r3, [pc, #216]	@ (8000f44 <HAL_RCC_OscConfig+0x4c4>)
 8000e6a:	685b      	ldr	r3, [r3, #4]
 8000e6c:	f003 030c 	and.w	r3, r3, #12
 8000e70:	2b08      	cmp	r3, #8
 8000e72:	d061      	beq.n	8000f38 <HAL_RCC_OscConfig+0x4b8>
 8000e74:	687b      	ldr	r3, [r7, #4]
 8000e76:	69db      	ldr	r3, [r3, #28]
 8000e78:	2b02      	cmp	r3, #2
 8000e7a:	d146      	bne.n	8000f0a <HAL_RCC_OscConfig+0x48a>
 8000e7c:	4b33      	ldr	r3, [pc, #204]	@ (8000f4c <HAL_RCC_OscConfig+0x4cc>)
 8000e7e:	2200      	movs	r2, #0
 8000e80:	601a      	str	r2, [r3, #0]
 8000e82:	f7ff fb0f 	bl	80004a4 <HAL_GetTick>
 8000e86:	6138      	str	r0, [r7, #16]
 8000e88:	e008      	b.n	8000e9c <HAL_RCC_OscConfig+0x41c>
 8000e8a:	f7ff fb0b 	bl	80004a4 <HAL_GetTick>
 8000e8e:	4602      	mov	r2, r0
 8000e90:	693b      	ldr	r3, [r7, #16]
 8000e92:	1ad3      	subs	r3, r2, r3
 8000e94:	2b02      	cmp	r3, #2
 8000e96:	d901      	bls.n	8000e9c <HAL_RCC_OscConfig+0x41c>
 8000e98:	2303      	movs	r3, #3
 8000e9a:	e06d      	b.n	8000f78 <HAL_RCC_OscConfig+0x4f8>
 8000e9c:	4b29      	ldr	r3, [pc, #164]	@ (8000f44 <HAL_RCC_OscConfig+0x4c4>)
 8000e9e:	681b      	ldr	r3, [r3, #0]
 8000ea0:	f003 7300 	and.w	r3, r3, #33554432	@ 0x2000000
 8000ea4:	2b00      	cmp	r3, #0
 8000ea6:	d1f0      	bne.n	8000e8a <HAL_RCC_OscConfig+0x40a>
 8000ea8:	687b      	ldr	r3, [r7, #4]
 8000eaa:	6a1b      	ldr	r3, [r3, #32]
 8000eac:	f5b3 3f80 	cmp.w	r3, #65536	@ 0x10000
 8000eb0:	d108      	bne.n	8000ec4 <HAL_RCC_OscConfig+0x444>
 8000eb2:	4b24      	ldr	r3, [pc, #144]	@ (8000f44 <HAL_RCC_OscConfig+0x4c4>)
 8000eb4:	685b      	ldr	r3, [r3, #4]
 8000eb6:	f423 3200 	bic.w	r2, r3, #131072	@ 0x20000
 8000eba:	687b      	ldr	r3, [r7, #4]
 8000ebc:	689b      	ldr	r3, [r3, #8]
 8000ebe:	4921      	ldr	r1, [pc, #132]	@ (8000f44 <HAL_RCC_OscConfig+0x4c4>)
 8000ec0:	4313      	orrs	r3, r2
 8000ec2:	604b      	str	r3, [r1, #4]
 8000ec4:	4b1f      	ldr	r3, [pc, #124]	@ (8000f44 <HAL_RCC_OscConfig+0x4c4>)
 8000ec6:	685b      	ldr	r3, [r3, #4]
 8000ec8:	f423 1274 	bic.w	r2, r3, #3997696	@ 0x3d0000
 8000ecc:	687b      	ldr	r3, [r7, #4]
 8000ece:	6a19      	ldr	r1, [r3, #32]
 8000ed0:	687b      	ldr	r3, [r7, #4]
 8000ed2:	6a5b      	ldr	r3, [r3, #36]	@ 0x24
 8000ed4:	430b      	orrs	r3, r1
 8000ed6:	491b      	ldr	r1, [pc, #108]	@ (8000f44 <HAL_RCC_OscConfig+0x4c4>)
 8000ed8:	4313      	orrs	r3, r2
 8000eda:	604b      	str	r3, [r1, #4]
 8000edc:	4b1b      	ldr	r3, [pc, #108]	@ (8000f4c <HAL_RCC_OscConfig+0x4cc>)
 8000ede:	2201      	movs	r2, #1
 8000ee0:	601a      	str	r2, [r3, #0]
 8000ee2:	f7ff fadf 	bl	80004a4 <HAL_GetTick>
 8000ee6:	6138      	str	r0, [r7, #16]
 8000ee8:	e008      	b.n	8000efc <HAL_RCC_OscConfig+0x47c>
 8000eea:	f7ff fadb 	bl	80004a4 <HAL_GetTick>
 8000eee:	4602      	mov	r2, r0
 8000ef0:	693b      	ldr	r3, [r7, #16]
 8000ef2:	1ad3      	subs	r3, r2, r3
 8000ef4:	2b02      	cmp	r3, #2
 8000ef6:	d901      	bls.n	8000efc <HAL_RCC_OscConfig+0x47c>
 8000ef8:	2303      	movs	r3, #3
 8000efa:	e03d      	b.n	8000f78 <HAL_RCC_OscConfig+0x4f8>
 8000efc:	4b11      	ldr	r3, [pc, #68]	@ (8000f44 <HAL_RCC_OscConfig+0x4c4>)
 8000efe:	681b      	ldr	r3, [r3, #0]
 8000f00:	f003 7300 	and.w	r3, r3, #33554432	@ 0x2000000
 8000f04:	2b00      	cmp	r3, #0
 8000f06:	d0f0      	beq.n	8000eea <HAL_RCC_OscConfig+0x46a>
 8000f08:	e035      	b.n	8000f76 <HAL_RCC_OscConfig+0x4f6>
 8000f0a:	4b10      	ldr	r3, [pc, #64]	@ (8000f4c <HAL_RCC_OscConfig+0x4cc>)
 8000f0c:	2200      	movs	r2, #0
 8000f0e:	601a      	str	r2, [r3, #0]
 8000f10:	f7ff fac8 	bl	80004a4 <HAL_GetTick>
 8000f14:	6138      	str	r0, [r7, #16]
 8000f16:	e008      	b.n	8000f2a <HAL_RCC_OscConfig+0x4aa>
 8000f18:	f7ff fac4 	bl	80004a4 <HAL_GetTick>
 8000f1c:	4602      	mov	r2, r0
 8000f1e:	693b      	ldr	r3, [r7, #16]
 8000f20:	1ad3      	subs	r3, r2, r3
 8000f22:	2b02      	cmp	r3, #2
 8000f24:	d901      	bls.n	8000f2a <HAL_RCC_OscConfig+0x4aa>
 8000f26:	2303      	movs	r3, #3
 8000f28:	e026      	b.n	8000f78 <HAL_RCC_OscConfig+0x4f8>
 8000f2a:	4b06      	ldr	r3, [pc, #24]	@ (8000f44 <HAL_RCC_OscConfig+0x4c4>)
 8000f2c:	681b      	ldr	r3, [r3, #0]
 8000f2e:	f003 7300 	and.w	r3, r3, #33554432	@ 0x2000000
 8000f32:	2b00      	cmp	r3, #0
 8000f34:	d1f0      	bne.n	8000f18 <HAL_RCC_OscConfig+0x498>
 8000f36:	e01e      	b.n	8000f76 <HAL_RCC_OscConfig+0x4f6>
 8000f38:	687b      	ldr	r3, [r7, #4]
 8000f3a:	69db      	ldr	r3, [r3, #28]
 8000f3c:	2b01      	cmp	r3, #1
 8000f3e:	d107      	bne.n	8000f50 <HAL_RCC_OscConfig+0x4d0>
 8000f40:	2301      	movs	r3, #1
 8000f42:	e019      	b.n	8000f78 <HAL_RCC_OscConfig+0x4f8>
 8000f44:	40021000 	.word	0x40021000
 8000f48:	40007000 	.word	0x40007000
 8000f4c:	42420060 	.word	0x42420060
 8000f50:	4b0b      	ldr	r3, [pc, #44]	@ (8000f80 <HAL_RCC_OscConfig+0x500>)
 8000f52:	685b      	ldr	r3, [r3, #4]
 8000f54:	60fb      	str	r3, [r7, #12]
 8000f56:	68fb      	ldr	r3, [r7, #12]
 8000f58:	f403 3280 	and.w	r2, r3, #65536	@ 0x10000
 8000f5c:	687b      	ldr	r3, [r7, #4]
 8000f5e:	6a1b      	ldr	r3, [r3, #32]
 8000f60:	429a      	cmp	r2, r3
 8000f62:	d106      	bne.n	8000f72 <HAL_RCC_OscConfig+0x4f2>
 8000f64:	68fb      	ldr	r3, [r7, #12]
 8000f66:	f403 1270 	and.w	r2, r3, #3932160	@ 0x3c0000
 8000f6a:	687b      	ldr	r3, [r7, #4]
 8000f6c:	6a5b      	ldr	r3, [r3, #36]	@ 0x24
 8000f6e:	429a      	cmp	r2, r3
 8000f70:	d001      	beq.n	8000f76 <HAL_RCC_OscConfig+0x4f6>
 8000f72:	2301      	movs	r3, #1
 8000f74:	e000      	b.n	8000f78 <HAL_RCC_OscConfig+0x4f8>
 8000f76:	2300      	movs	r3, #0
 8000f78:	4618      	mov	r0, r3
 8000f7a:	3718      	adds	r7, #24
 8000f7c:	46bd      	mov	sp, r7
 8000f7e:	bd80      	pop	{r7, pc}
 8000f80:	40021000 	.word	0x40021000

08000f84 <HAL_RCC_ClockConfig>:
 8000f84:	b580      	push	{r7, lr}
 8000f86:	b084      	sub	sp, #16
 8000f88:	af00      	add	r7, sp, #0
 8000f8a:	6078      	str	r0, [r7, #4]
 8000f8c:	6039      	str	r1, [r7, #0]
 8000f8e:	687b      	ldr	r3, [r7, #4]
 8000f90:	2b00      	cmp	r3, #0
 8000f92:	d101      	bne.n	8000f98 <HAL_RCC_ClockConfig+0x14>
 8000f94:	2301      	movs	r3, #1
 8000f96:	e0d0      	b.n	800113a <HAL_RCC_ClockConfig+0x1b6>
 8000f98:	4b6a      	ldr	r3, [pc, #424]	@ (8001144 <HAL_RCC_ClockConfig+0x1c0>)
 8000f9a:	681b      	ldr	r3, [r3, #0]
 8000f9c:	f003 0307 	and.w	r3, r3, #7
 8000fa0:	683a      	ldr	r2, [r7, #0]
 8000fa2:	429a      	cmp	r2, r3
 8000fa4:	d910      	bls.n	8000fc8 <HAL_RCC_ClockConfig+0x44>
 8000fa6:	4b67      	ldr	r3, [pc, #412]	@ (8001144 <HAL_RCC_ClockConfig+0x1c0>)
 8000fa8:	681b      	ldr	r3, [r3, #0]
 8000faa:	f023 0207 	bic.w	r2, r3, #7
 8000fae:	4965      	ldr	r1, [pc, #404]	@ (8001144 <HAL_RCC_ClockConfig+0x1c0>)
 8000fb0:	683b      	ldr	r3, [r7, #0]
 8000fb2:	4313      	orrs	r3, r2
 8000fb4:	600b      	str	r3, [r1, #0]
 8000fb6:	4b63      	ldr	r3, [pc, #396]	@ (8001144 <HAL_RCC_ClockConfig+0x1c0>)
 8000fb8:	681b      	ldr	r3, [r3, #0]
 8000fba:	f003 0307 	and.w	r3, r3, #7
 8000fbe:	683a      	ldr	r2, [r7, #0]
 8000fc0:	429a      	cmp	r2, r3
 8000fc2:	d001      	beq.n	8000fc8 <HAL_RCC_ClockConfig+0x44>
 8000fc4:	2301      	movs	r3, #1
 8000fc6:	e0b8      	b.n	800113a <HAL_RCC_ClockConfig+0x1b6>
 8000fc8:	687b      	ldr	r3, [r7, #4]
 8000fca:	681b      	ldr	r3, [r3, #0]
 8000fcc:	f003 0302 	and.w	r3, r3, #2
 8000fd0:	2b00      	cmp	r3, #0
 8000fd2:	d020      	beq.n	8001016 <HAL_RCC_ClockConfig+0x92>
 8000fd4:	687b      	ldr	r3, [r7, #4]
 8000fd6:	681b      	ldr	r3, [r3, #0]
 8000fd8:	f003 0304 	and.w	r3, r3, #4
 8000fdc:	2b00      	cmp	r3, #0
 8000fde:	d005      	beq.n	8000fec <HAL_RCC_ClockConfig+0x68>
 8000fe0:	4b59      	ldr	r3, [pc, #356]	@ (8001148 <HAL_RCC_ClockConfig+0x1c4>)
 8000fe2:	685b      	ldr	r3, [r3, #4]
 8000fe4:	4a58      	ldr	r2, [pc, #352]	@ (8001148 <HAL_RCC_ClockConfig+0x1c4>)
 8000fe6:	f443 63e0 	orr.w	r3, r3, #1792	@ 0x700
 8000fea:	6053      	str	r3, [r2, #4]
 8000fec:	687b      	ldr	r3, [r7, #4]
 8000fee:	681b      	ldr	r3, [r3, #0]
 8000ff0:	f003 0308 	and.w	r3, r3, #8
 8000ff4:	2b00      	cmp	r3, #0
 8000ff6:	d005      	beq.n	8001004 <HAL_RCC_ClockConfig+0x80>
 8000ff8:	4b53      	ldr	r3, [pc, #332]	@ (8001148 <HAL_RCC_ClockConfig+0x1c4>)
 8000ffa:	685b      	ldr	r3, [r3, #4]
 8000ffc:	4a52      	ldr	r2, [pc, #328]	@ (8001148 <HAL_RCC_ClockConfig+0x1c4>)
 8000ffe:	f443 5360 	orr.w	r3, r3, #14336	@ 0x3800
 8001002:	6053      	str	r3, [r2, #4]
 8001004:	4b50      	ldr	r3, [pc, #320]	@ (8001148 <HAL_RCC_ClockConfig+0x1c4>)
 8001006:	685b      	ldr	r3, [r3, #4]
 8001008:	f023 02f0 	bic.w	r2, r3, #240	@ 0xf0
 800100c:	687b      	ldr	r3, [r7, #4]
 800100e:	689b      	ldr	r3, [r3, #8]
 8001010:	494d      	ldr	r1, [pc, #308]	@ (8001148 <HAL_RCC_ClockConfig+0x1c4>)
 8001012:	4313      	orrs	r3, r2
 8001014:	604b      	str	r3, [r1, #4]
 8001016:	687b      	ldr	r3, [r7, #4]
 8001018:	681b      	ldr	r3, [r3, #0]
 800101a:	f003 0301 	and.w	r3, r3, #1
 800101e:	2b00      	cmp	r3, #0
 8001020:	d040      	beq.n	80010a4 <HAL_RCC_ClockConfig+0x120>
 8001022:	687b      	ldr	r3, [r7, #4]
 8001024:	685b      	ldr	r3, [r3, #4]
 8001026:	2b01      	cmp	r3, #1
 8001028:	d107      	bne.n	800103a <HAL_RCC_ClockConfig+0xb6>
 800102a:	4b47      	ldr	r3, [pc, #284]	@ (8001148 <HAL_RCC_ClockConfig+0x1c4>)
 800102c:	681b      	ldr	r3, [r3, #0]
 800102e:	f403 3300 	and.w	r3, r3, #131072	@ 0x20000
 8001032:	2b00      	cmp	r3, #0
 8001034:	d115      	bne.n	8001062 <HAL_RCC_ClockConfig+0xde>
 8001036:	2301      	movs	r3, #1
 8001038:	e07f      	b.n	800113a <HAL_RCC_ClockConfig+0x1b6>
 800103a:	687b      	ldr	r3, [r7, #4]
 800103c:	685b      	ldr	r3, [r3, #4]
 800103e:	2b02      	cmp	r3, #2
 8001040:	d107      	bne.n	8001052 <HAL_RCC_ClockConfig+0xce>
 8001042:	4b41      	ldr	r3, [pc, #260]	@ (8001148 <HAL_RCC_ClockConfig+0x1c4>)
 8001044:	681b      	ldr	r3, [r3, #0]
 8001046:	f003 7300 	and.w	r3, r3, #33554432	@ 0x2000000
 800104a:	2b00      	cmp	r3, #0
 800104c:	d109      	bne.n	8001062 <HAL_RCC_ClockConfig+0xde>
 800104e:	2301      	movs	r3, #1
 8001050:	e073      	b.n	800113a <HAL_RCC_ClockConfig+0x1b6>
 8001052:	4b3d      	ldr	r3, [pc, #244]	@ (8001148 <HAL_RCC_ClockConfig+0x1c4>)
 8001054:	681b      	ldr	r3, [r3, #0]
 8001056:	f003 0302 	and.w	r3, r3, #2
 800105a:	2b00      	cmp	r3, #0
 800105c:	d101      	bne.n	8001062 <HAL_RCC_ClockConfig+0xde>
 800105e:	2301      	movs	r3, #1
 8001060:	e06b      	b.n	800113a <HAL_RCC_ClockConfig+0x1b6>
 8001062:	4b39      	ldr	r3, [pc, #228]	@ (8001148 <HAL_RCC_ClockConfig+0x1c4>)
 8001064:	685b      	ldr	r3, [r3, #4]
 8001066:	f023 0203 	bic.w	r2, r3, #3
 800106a:	687b      	ldr	r3, [r7, #4]
 800106c:	685b      	ldr	r3, [r3, #4]
 800106e:	4936      	ldr	r1, [pc, #216]	@ (8001148 <HAL_RCC_ClockConfig+0x1c4>)
 8001070:	4313      	orrs	r3, r2
 8001072:	604b      	str	r3, [r1, #4]
 8001074:	f7ff fa16 	bl	80004a4 <HAL_GetTick>
 8001078:	60f8      	str	r0, [r7, #12]
 800107a:	e00a      	b.n	8001092 <HAL_RCC_ClockConfig+0x10e>
 800107c:	f7ff fa12 	bl	80004a4 <HAL_GetTick>
 8001080:	4602      	mov	r2, r0
 8001082:	68fb      	ldr	r3, [r7, #12]
 8001084:	1ad3      	subs	r3, r2, r3
 8001086:	f241 3288 	movw	r2, #5000	@ 0x1388
 800108a:	4293      	cmp	r3, r2
 800108c:	d901      	bls.n	8001092 <HAL_RCC_ClockConfig+0x10e>
 800108e:	2303      	movs	r3, #3
 8001090:	e053      	b.n	800113a <HAL_RCC_ClockConfig+0x1b6>
 8001092:	4b2d      	ldr	r3, [pc, #180]	@ (8001148 <HAL_RCC_ClockConfig+0x1c4>)
 8001094:	685b      	ldr	r3, [r3, #4]
 8001096:	f003 020c 	and.w	r2, r3, #12
 800109a:	687b      	ldr	r3, [r7, #4]
 800109c:	685b      	ldr	r3, [r3, #4]
 800109e:	009b      	lsls	r3, r3, #2
 80010a0:	429a      	cmp	r2, r3
 80010a2:	d1eb      	bne.n	800107c <HAL_RCC_ClockConfig+0xf8>
 80010a4:	4b27      	ldr	r3, [pc, #156]	@ (8001144 <HAL_RCC_ClockConfig+0x1c0>)
 80010a6:	681b      	ldr	r3, [r3, #0]
 80010a8:	f003 0307 	and.w	r3, r3, #7
 80010ac:	683a      	ldr	r2, [r7, #0]
 80010ae:	429a      	cmp	r2, r3
 80010b0:	d210      	bcs.n	80010d4 <HAL_RCC_ClockConfig+0x150>
 80010b2:	4b24      	ldr	r3, [pc, #144]	@ (8001144 <HAL_RCC_ClockConfig+0x1c0>)
 80010b4:	681b      	ldr	r3, [r3, #0]
 80010b6:	f023 0207 	bic.w	r2, r3, #7
 80010ba:	4922      	ldr	r1, [pc, #136]	@ (8001144 <HAL_RCC_ClockConfig+0x1c0>)
 80010bc:	683b      	ldr	r3, [r7, #0]
 80010be:	4313      	orrs	r3, r2
 80010c0:	600b      	str	r3, [r1, #0]
 80010c2:	4b20      	ldr	r3, [pc, #128]	@ (8001144 <HAL_RCC_ClockConfig+0x1c0>)
 80010c4:	681b      	ldr	r3, [r3, #0]
 80010c6:	f003 0307 	and.w	r3, r3, #7
 80010ca:	683a      	ldr	r2, [r7, #0]
 80010cc:	429a      	cmp	r2, r3
 80010ce:	d001      	beq.n	80010d4 <HAL_RCC_ClockConfig+0x150>
 80010d0:	2301      	movs	r3, #1
 80010d2:	e032      	b.n	800113a <HAL_RCC_ClockConfig+0x1b6>
 80010d4:	687b      	ldr	r3, [r7, #4]
 80010d6:	681b      	ldr	r3, [r3, #0]
 80010d8:	f003 0304 	and.w	r3, r3, #4
 80010dc:	2b00      	cmp	r3, #0
 80010de:	d008      	beq.n	80010f2 <HAL_RCC_ClockConfig+0x16e>
 80010e0:	4b19      	ldr	r3, [pc, #100]	@ (8001148 <HAL_RCC_ClockConfig+0x1c4>)
 80010e2:	685b      	ldr	r3, [r3, #4]
 80010e4:	f423 62e0 	bic.w	r2, r3, #1792	@ 0x700
 80010e8:	687b      	ldr	r3, [r7, #4]
 80010ea:	68db      	ldr	r3, [r3, #12]
 80010ec:	4916      	ldr	r1, [pc, #88]	@ (8001148 <HAL_RCC_ClockConfig+0x1c4>)
 80010ee:	4313      	orrs	r3, r2
 80010f0:	604b      	str	r3, [r1, #4]
 80010f2:	687b      	ldr	r3, [r7, #4]
 80010f4:	681b      	ldr	r3, [r3, #0]
 80010f6:	f003 0308 	and.w	r3, r3, #8
 80010fa:	2b00      	cmp	r3, #0
 80010fc:	d009      	beq.n	8001112 <HAL_RCC_ClockConfig+0x18e>
 80010fe:	4b12      	ldr	r3, [pc, #72]	@ (8001148 <HAL_RCC_ClockConfig+0x1c4>)
 8001100:	685b      	ldr	r3, [r3, #4]
 8001102:	f423 5260 	bic.w	r2, r3, #14336	@ 0x3800
 8001106:	687b      	ldr	r3, [r7, #4]
 8001108:	691b      	ldr	r3, [r3, #16]
 800110a:	00db      	lsls	r3, r3, #3
 800110c:	490e      	ldr	r1, [pc, #56]	@ (8001148 <HAL_RCC_ClockConfig+0x1c4>)
 800110e:	4313      	orrs	r3, r2
 8001110:	604b      	str	r3, [r1, #4]
 8001112:	f000 f821 	bl	8001158 <HAL_RCC_GetSysClockFreq>
 8001116:	4602      	mov	r2, r0
 8001118:	4b0b      	ldr	r3, [pc, #44]	@ (8001148 <HAL_RCC_ClockConfig+0x1c4>)
 800111a:	685b      	ldr	r3, [r3, #4]
 800111c:	091b      	lsrs	r3, r3, #4
 800111e:	f003 030f 	and.w	r3, r3, #15
 8001122:	490a      	ldr	r1, [pc, #40]	@ (800114c <HAL_RCC_ClockConfig+0x1c8>)
 8001124:	5ccb      	ldrb	r3, [r1, r3]
 8001126:	fa22 f303 	lsr.w	r3, r2, r3
 800112a:	4a09      	ldr	r2, [pc, #36]	@ (8001150 <HAL_RCC_ClockConfig+0x1cc>)
 800112c:	6013      	str	r3, [r2, #0]
 800112e:	4b09      	ldr	r3, [pc, #36]	@ (8001154 <HAL_RCC_ClockConfig+0x1d0>)
 8001130:	681b      	ldr	r3, [r3, #0]
 8001132:	4618      	mov	r0, r3
 8001134:	f7ff f974 	bl	8000420 <HAL_InitTick>
 8001138:	2300      	movs	r3, #0
 800113a:	4618      	mov	r0, r3
 800113c:	3710      	adds	r7, #16
 800113e:	46bd      	mov	sp, r7
 8001140:	bd80      	pop	{r7, pc}
 8001142:	bf00      	nop
 8001144:	40022000 	.word	0x40022000
 8001148:	40021000 	.word	0x40021000
 800114c:	080012ac 	.word	0x080012ac
 8001150:	20000000 	.word	0x20000000
 8001154:	20000004 	.word	0x20000004

08001158 <HAL_RCC_GetSysClockFreq>:
 8001158:	b480      	push	{r7}
 800115a:	b087      	sub	sp, #28
 800115c:	af00      	add	r7, sp, #0
 800115e:	2300      	movs	r3, #0
 8001160:	60fb      	str	r3, [r7, #12]
 8001162:	2300      	movs	r3, #0
 8001164:	60bb      	str	r3, [r7, #8]
 8001166:	2300      	movs	r3, #0
 8001168:	617b      	str	r3, [r7, #20]
 800116a:	2300      	movs	r3, #0
 800116c:	607b      	str	r3, [r7, #4]
 800116e:	2300      	movs	r3, #0
 8001170:	613b      	str	r3, [r7, #16]
 8001172:	4b1e      	ldr	r3, [pc, #120]	@ (80011ec <HAL_RCC_GetSysClockFreq+0x94>)
 8001174:	685b      	ldr	r3, [r3, #4]
 8001176:	60fb      	str	r3, [r7, #12]
 8001178:	68fb      	ldr	r3, [r7, #12]
 800117a:	f003 030c 	and.w	r3, r3, #12
 800117e:	2b04      	cmp	r3, #4
 8001180:	d002      	beq.n	8001188 <HAL_RCC_GetSysClockFreq+0x30>
 8001182:	2b08      	cmp	r3, #8
 8001184:	d003      	beq.n	800118e <HAL_RCC_GetSysClockFreq+0x36>
 8001186:	e027      	b.n	80011d8 <HAL_RCC_GetSysClockFreq+0x80>
 8001188:	4b19      	ldr	r3, [pc, #100]	@ (80011f0 <HAL_RCC_GetSysClockFreq+0x98>)
 800118a:	613b      	str	r3, [r7, #16]
 800118c:	e027      	b.n	80011de <HAL_RCC_GetSysClockFreq+0x86>
 800118e:	68fb      	ldr	r3, [r7, #12]
 8001190:	0c9b      	lsrs	r3, r3, #18
 8001192:	f003 030f 	and.w	r3, r3, #15
 8001196:	4a17      	ldr	r2, [pc, #92]	@ (80011f4 <HAL_RCC_GetSysClockFreq+0x9c>)
 8001198:	5cd3      	ldrb	r3, [r2, r3]
 800119a:	607b      	str	r3, [r7, #4]
 800119c:	68fb      	ldr	r3, [r7, #12]
 800119e:	f403 3380 	and.w	r3, r3, #65536	@ 0x10000
 80011a2:	2b00      	cmp	r3, #0
 80011a4:	d010      	beq.n	80011c8 <HAL_RCC_GetSysClockFreq+0x70>
 80011a6:	4b11      	ldr	r3, [pc, #68]	@ (80011ec <HAL_RCC_GetSysClockFreq+0x94>)
 80011a8:	685b      	ldr	r3, [r3, #4]
 80011aa:	0c5b      	lsrs	r3, r3, #17
 80011ac:	f003 0301 	and.w	r3, r3, #1
 80011b0:	4a11      	ldr	r2, [pc, #68]	@ (80011f8 <HAL_RCC_GetSysClockFreq+0xa0>)
 80011b2:	5cd3      	ldrb	r3, [r2, r3]
 80011b4:	60bb      	str	r3, [r7, #8]
 80011b6:	687b      	ldr	r3, [r7, #4]
 80011b8:	4a0d      	ldr	r2, [pc, #52]	@ (80011f0 <HAL_RCC_GetSysClockFreq+0x98>)
 80011ba:	fb03 f202 	mul.w	r2, r3, r2
 80011be:	68bb      	ldr	r3, [r7, #8]
 80011c0:	fbb2 f3f3 	udiv	r3, r2, r3
 80011c4:	617b      	str	r3, [r7, #20]
 80011c6:	e004      	b.n	80011d2 <HAL_RCC_GetSysClockFreq+0x7a>
 80011c8:	687b      	ldr	r3, [r7, #4]
 80011ca:	4a0c      	ldr	r2, [pc, #48]	@ (80011fc <HAL_RCC_GetSysClockFreq+0xa4>)
 80011cc:	fb02 f303 	mul.w	r3, r2, r3
 80011d0:	617b      	str	r3, [r7, #20]
 80011d2:	697b      	ldr	r3, [r7, #20]
 80011d4:	613b      	str	r3, [r7, #16]
 80011d6:	e002      	b.n	80011de <HAL_RCC_GetSysClockFreq+0x86>
 80011d8:	4b05      	ldr	r3, [pc, #20]	@ (80011f0 <HAL_RCC_GetSysClockFreq+0x98>)
 80011da:	613b      	str	r3, [r7, #16]
 80011dc:	bf00      	nop
 80011de:	693b      	ldr	r3, [r7, #16]
 80011e0:	4618      	mov	r0, r3
 80011e2:	371c      	adds	r7, #28
 80011e4:	46bd      	mov	sp, r7
 80011e6:	bc80      	pop	{r7}
 80011e8:	4770      	bx	lr
 80011ea:	bf00      	nop
 80011ec:	40021000 	.word	0x40021000
 80011f0:	007a1200 	.word	0x007a1200
 80011f4:	080012bc 	.word	0x080012bc
 80011f8:	080012cc 	.word	0x080012cc
 80011fc:	003d0900 	.word	0x003d0900

08001200 <RCC_Delay>:
 8001200:	b480      	push	{r7}
 8001202:	b085      	sub	sp, #20
 8001204:	af00      	add	r7, sp, #0
 8001206:	6078      	str	r0, [r7, #4]
 8001208:	4b0a      	ldr	r3, [pc, #40]	@ (8001234 <RCC_Delay+0x34>)
 800120a:	681b      	ldr	r3, [r3, #0]
 800120c:	4a0a      	ldr	r2, [pc, #40]	@ (8001238 <RCC_Delay+0x38>)
 800120e:	fba2 2303 	umull	r2, r3, r2, r3
 8001212:	0a5b      	lsrs	r3, r3, #9
 8001214:	687a      	ldr	r2, [r7, #4]
 8001216:	fb02 f303 	mul.w	r3, r2, r3
 800121a:	60fb      	str	r3, [r7, #12]
 800121c:	bf00      	nop
 800121e:	68fb      	ldr	r3, [r7, #12]
 8001220:	1e5a      	subs	r2, r3, #1
 8001222:	60fa      	str	r2, [r7, #12]
 8001224:	2b00      	cmp	r3, #0
 8001226:	d1f9      	bne.n	800121c <RCC_Delay+0x1c>
 8001228:	bf00      	nop
 800122a:	bf00      	nop
 800122c:	3714      	adds	r7, #20
 800122e:	46bd      	mov	sp, r7
 8001230:	bc80      	pop	{r7}
 8001232:	4770      	bx	lr
 8001234:	20000000 	.word	0x20000000
 8001238:	10624dd3 	.word	0x10624dd3

0800123c <memset>:
 800123c:	4603      	mov	r3, r0
 800123e:	4402      	add	r2, r0
 8001240:	4293      	cmp	r3, r2
 8001242:	d100      	bne.n	8001246 <memset+0xa>
 8001244:	4770      	bx	lr
 8001246:	f803 1b01 	strb.w	r1, [r3], #1
 800124a:	e7f9      	b.n	8001240 <memset+0x4>

0800124c <__libc_init_array>:
 800124c:	b570      	push	{r4, r5, r6, lr}
 800124e:	2600      	movs	r6, #0
 8001250:	4d0c      	ldr	r5, [pc, #48]	@ (8001284 <__libc_init_array+0x38>)
 8001252:	4c0d      	ldr	r4, [pc, #52]	@ (8001288 <__libc_init_array+0x3c>)
 8001254:	1b64      	subs	r4, r4, r5
 8001256:	10a4      	asrs	r4, r4, #2
 8001258:	42a6      	cmp	r6, r4
 800125a:	d109      	bne.n	8001270 <__libc_init_array+0x24>
 800125c:	f000 f81a 	bl	8001294 <_init>
 8001260:	2600      	movs	r6, #0
 8001262:	4d0a      	ldr	r5, [pc, #40]	@ (800128c <__libc_init_array+0x40>)
 8001264:	4c0a      	ldr	r4, [pc, #40]	@ (8001290 <__libc_init_array+0x44>)
 8001266:	1b64      	subs	r4, r4, r5
 8001268:	10a4      	asrs	r4, r4, #2
 800126a:	42a6      	cmp	r6, r4
 800126c:	d105      	bne.n	800127a <__libc_init_array+0x2e>
 800126e:	bd70      	pop	{r4, r5, r6, pc}
 8001270:	f855 3b04 	ldr.w	r3, [r5], #4
 8001274:	4798      	blx	r3
 8001276:	3601      	adds	r6, #1
 8001278:	e7ee      	b.n	8001258 <__libc_init_array+0xc>
 800127a:	f855 3b04 	ldr.w	r3, [r5], #4
 800127e:	4798      	blx	r3
 8001280:	3601      	adds	r6, #1
 8001282:	e7f2      	b.n	800126a <__libc_init_array+0x1e>
 8001284:	080012d0 	.word	0x080012d0
 8001288:	080012d0 	.word	0x080012d0
 800128c:	080012d0 	.word	0x080012d0
 8001290:	080012d4 	.word	0x080012d4

08001294 <_init>:
 8001294:	b5f8      	push	{r3, r4, r5, r6, r7, lr}
 8001296:	bf00      	nop
 8001298:	bcf8      	pop	{r3, r4, r5, r6, r7}
 800129a:	bc08      	pop	{r3}
 800129c:	469e      	mov	lr, r3
 800129e:	4770      	bx	lr

080012a0 <_fini>:
 80012a0:	b5f8      	push	{r3, r4, r5, r6, r7, lr}
 80012a2:	bf00      	nop
 80012a4:	bcf8      	pop	{r3, r4, r5, r6, r7}
 80012a6:	bc08      	pop	{r3}
 80012a8:	469e      	mov	lr, r3
 80012aa:	4770      	bx	lr
